; generated by Component: ARM Compiler 5.06 update 2 (build 183) Tool: ArmCC [4d35cd]
; commandline ArmCC [--list --split_sections --debug -c --asm --interleave -o.\objects\lcd.o --asm_dir=.\Listings\ --list_dir=.\Listings\ --depend=.\objects\lcd.d --cpu=Cortex-M4.fp --apcs=interwork --diag_suppress=9931 -I..\OS -I..\OS\components\finsh -I..\OS\include -I..\OS\libcpu\arm\common -I..\OS\libcpu\arm\cortex-m4 -I..\OS\bsp\stm32f40x\Libraries\CMSIS\Include -I..\OS\bsp\stm32f40x\Libraries\STM32F4xx_StdPeriph_Driver\inc -I..\OS\bsp\stm32f40x\Libraries\CMSIS\ST\STM32F4xx\Include -I..\OS\bsp\stm32f40x\applications -I..\OS\bsp\stm32f40x\drivers -I..\OS\bsp\stm32f40x -I..\ext\inc -I..\tb_Application -I..\tb_Algorithm -I..\tb_Driver -IE:\Robotic_Platform\mdk_Prj\RTE -Id:\Keil_v5\ARM\PACK\Keil\STM32F4xx_DFP\2.8.0\Drivers\CMSIS\Device\ST\STM32F4xx\Include -Id:\Keil_v5\ARM\CMSIS\Include -D__UVISION_VERSION=520 -DSTM32F429xx -DUSE_STDPERIPH_DRIVER -DSTM32F429xx --omf_browse=.\objects\lcd.crf ..\tb_Driver\lcd.c]
                          THUMB

                          AREA ||i.lcd_bgr_to_rgb||, CODE, READONLY, ALIGN=1

                  lcd_bgr_to_rgb PROC
;;;83     //返回值：RGB格式的颜色值
;;;84     u16 lcd_bgr_to_rgb(u16 c)
000000  f3c01145          UBFX     r1,r0,#5,#6
;;;85     {
;;;86     	u16  r,g,b,rgb;   
;;;87     	b=(c>>0)&0x1f;
;;;88     	g=(c>>5)&0x3f;
;;;89     	r=(c>>11)&0x1f;	 
000004  0ac2              LSRS     r2,r0,#11
;;;90     	rgb=(b<<11)+(g<<5)+(r<<0);		 
000006  02c0              LSLS     r0,r0,#11
000008  eb001041          ADD      r0,r0,r1,LSL #5
00000c  4410              ADD      r0,r0,r2
00000e  b280              UXTH     r0,r0
;;;91     	return(rgb);
;;;92     } 
000010  4770              BX       lr
;;;93     //当mdk -O1时间优化时需要设置
                          ENDP


                          AREA ||i.lcd_clear||, CODE, READONLY, ALIGN=2

                  lcd_clear PROC
;;;1803   //color:要清屏的填充色
;;;1804   void lcd_clear(u32 color)
000000  b570              PUSH     {r4-r6,lr}
;;;1805   {
000002  4606              MOV      r6,r0
;;;1806   	u32 index=0;      
;;;1807   	u32 totalpoint=lcd_dev.width; 
000004  4809              LDR      r0,|L2.44|
000006  2400              MOVS     r4,#0                 ;1806
000008  8801              LDRH     r1,[r0,#0]  ; lcd_dev
;;;1808   	totalpoint*=lcd_dev.height; 			//得到总点数
00000a  8845              LDRH     r5,[r0,#2]  ; lcd_dev
;;;1809   	lcd_set_cursor(0x00,0x0000);			//设置光标位置 
00000c  4620              MOV      r0,r4
00000e  434d              MULS     r5,r1,r5              ;1808
000010  4621              MOV      r1,r4
000012  f7fffffe          BL       lcd_set_cursor
;;;1810   	lcd_write_ram_prepare();     		//开始写入GRAM	 	  
000016  f7fffffe          BL       lcd_write_ram_prepare
;;;1811   	for(index=0;index<totalpoint;index++)
;;;1812   	{
;;;1813   		LCD->lcd_ram=color;	
00001a  b2b1              UXTH     r1,r6
00001c  4804              LDR      r0,|L2.48|
00001e  e001              B        |L2.36|
                  |L2.32|
000020  8001              STRH     r1,[r0,#0]
000022  1c64              ADDS     r4,r4,#1
                  |L2.36|
000024  42ac              CMP      r4,r5                 ;1811
000026  d3fb              BCC      |L2.32|
;;;1814   	} 
;;;1815   }  
000028  bd70              POP      {r4-r6,pc}
;;;1816   //在指定区域内填充单个颜色
                          ENDP

00002a  0000              DCW      0x0000
                  |L2.44|
                          DCD      ||.bss||
                  |L2.48|
                          DCD      0x60080000

                          AREA ||i.lcd_color_fill||, CODE, READONLY, ALIGN=2

                  lcd_color_fill PROC
;;;1833   //color:要填充的颜色
;;;1834   void lcd_color_fill(u16 sx,u16 sy,u16 ex,u16 ey,u16 *color)
000000  e92d47f0          PUSH     {r4-r10,lr}
;;;1835   {  
000004  4682              MOV      r10,r0
;;;1836   	u16 height,width;
;;;1837   	u16 i,j; 
;;;1838   	width=ex-sx+1; 			//得到填充的宽度
000006  eba2000a          SUB      r0,r2,r10
00000a  1c40              ADDS     r0,r0,#1
00000c  460e              MOV      r6,r1                 ;1835
00000e  b285              UXTH     r5,r0
;;;1839   	height=ey-sy+1;			//高度
000010  1b98              SUBS     r0,r3,r6
000012  1c40              ADDS     r0,r0,#1
000014  b287              UXTH     r7,r0
;;;1840   	for(i=0;i<height;i++)
000016  2400              MOVS     r4,#0
;;;1841   	{
;;;1842   		lcd_set_cursor(sx,sy+i);   	//设置光标位置 
;;;1843   		lcd_write_ram_prepare();     //开始写入GRAM
;;;1844   		for(j=0;j<width;j++)LCD->lcd_ram=color[i*width+j];//写入数据 
000018  f8df9038          LDR      r9,|L3.84|
00001c  f8dd8020          LDR      r8,[sp,#0x20]         ;1835
000020  e014              B        |L3.76|
                  |L3.34|
000022  1930              ADDS     r0,r6,r4              ;1842
000024  b281              UXTH     r1,r0                 ;1842
000026  4650              MOV      r0,r10                ;1842
000028  f7fffffe          BL       lcd_set_cursor
00002c  f7fffffe          BL       lcd_write_ram_prepare
000030  2000              MOVS     r0,#0
000032  4649              MOV      r1,r9
000034  e006              B        |L3.68|
                  |L3.54|
000036  fb040305          MLA      r3,r4,r5,r0
00003a  f8382013          LDRH     r2,[r8,r3,LSL #1]
00003e  800a              STRH     r2,[r1,#0]
000040  1c40              ADDS     r0,r0,#1
000042  b280              UXTH     r0,r0
                  |L3.68|
000044  42a8              CMP      r0,r5
000046  d3f6              BCC      |L3.54|
000048  1c64              ADDS     r4,r4,#1
00004a  b2a4              UXTH     r4,r4                 ;1840
                  |L3.76|
00004c  42bc              CMP      r4,r7                 ;1840
00004e  d3e8              BCC      |L3.34|
;;;1845   	} 
;;;1846   }  
000050  e8bd87f0          POP      {r4-r10,pc}
;;;1847   //画线
                          ENDP

                  |L3.84|
                          DCD      0x60080000

                          AREA ||i.lcd_display_off||, CODE, READONLY, ALIGN=2

                  lcd_display_off PROC
;;;129    //LCD关闭显示
;;;130    void lcd_display_off(void)
000000  480c              LDR      r0,|L4.52|
;;;131    {	   
;;;132    	if(lcd_dev.id==0X9341||lcd_dev.id==0X5310||lcd_dev.id==0X1963)lcd_wr_reg(0X28);	//关闭显示
000002  8880              LDRH     r0,[r0,#4]  ; lcd_dev
000004  f5a04113          SUB      r1,r0,#0x9300
000008  3941              SUBS     r1,r1,#0x41
00000a  d00f              BEQ      |L4.44|
00000c  f5a041a6          SUB      r1,r0,#0x5300
000010  3910              SUBS     r1,r1,#0x10
000012  d00b              BEQ      |L4.44|
000014  f5a051c8          SUB      r1,r0,#0x1900
000018  3963              SUBS     r1,r1,#0x63
00001a  d007              BEQ      |L4.44|
;;;133    	else if(lcd_dev.id==0X5510)lcd_wr_reg(0X2800);	//关闭显示
00001c  f5a041aa          SUB      r1,r0,#0x5500
000020  3910              SUBS     r1,r1,#0x10
000022  d105              BNE      |L4.48|
000024  f44f5020          MOV      r0,#0x2800
                  |L4.40|
000028  f7ffbffe          B.W      lcd_wr_reg
                  |L4.44|
00002c  2028              MOVS     r0,#0x28              ;132
00002e  e7fb              B        |L4.40|
                  |L4.48|
;;;134    }   
000030  4770              BX       lr
;;;135    //设置光标位置(对RGB屏无效)
                          ENDP

000032  0000              DCW      0x0000
                  |L4.52|
                          DCD      ||.bss||

                          AREA ||i.lcd_display_on||, CODE, READONLY, ALIGN=2

                  lcd_display_on PROC
;;;123    //LCD开启显示
;;;124    void lcd_display_on(void)
000000  480c              LDR      r0,|L5.52|
;;;125    {					   
;;;126    	if(lcd_dev.id==0X9341||lcd_dev.id==0X5310||lcd_dev.id==0X1963)lcd_wr_reg(0X29);	//开启显示
000002  8880              LDRH     r0,[r0,#4]  ; lcd_dev
000004  f5a04113          SUB      r1,r0,#0x9300
000008  3941              SUBS     r1,r1,#0x41
00000a  d00f              BEQ      |L5.44|
00000c  f5a041a6          SUB      r1,r0,#0x5300
000010  3910              SUBS     r1,r1,#0x10
000012  d00b              BEQ      |L5.44|
000014  f5a051c8          SUB      r1,r0,#0x1900
000018  3963              SUBS     r1,r1,#0x63
00001a  d007              BEQ      |L5.44|
;;;127    	else if(lcd_dev.id==0X5510)lcd_wr_reg(0X2900);	//开启显示
00001c  f5a041aa          SUB      r1,r0,#0x5500
000020  3910              SUBS     r1,r1,#0x10
000022  d105              BNE      |L5.48|
000024  f44f5024          MOV      r0,#0x2900
                  |L5.40|
000028  f7ffbffe          B.W      lcd_wr_reg
                  |L5.44|
00002c  2029              MOVS     r0,#0x29              ;126
00002e  e7fb              B        |L5.40|
                  |L5.48|
;;;128    }	 
000030  4770              BX       lr
;;;129    //LCD关闭显示
                          ENDP

000032  0000              DCW      0x0000
                  |L5.52|
                          DCD      ||.bss||

                          AREA ||i.lcd_display_dir||, CODE, READONLY, ALIGN=2

                  lcd_display_dir PROC
;;;323    //dir:0,竖屏；1,横屏
;;;324    void lcd_display_dir(u8 dir)
000000  e92d4ff0          PUSH     {r4-r11,lr}
;;;325    {
;;;326    	lcd_dev.dir=dir;		//竖屏/横屏 
000004  4b33              LDR      r3,|L6.212|
;;;327    	if(dir==0)			//竖屏
;;;328    	{
;;;329    		lcd_dev.width=240;
;;;330    		lcd_dev.height=320;
;;;331    		if(lcd_dev.id==0X9341||lcd_dev.id==0X5310)
;;;332    		{
;;;333    			lcd_dev.wram_cmd=0X2C;
000006  242c              MOVS     r4,#0x2c
000008  4619              MOV      r1,r3                 ;326
00000a  7198              STRB     r0,[r3,#6]            ;326
;;;334    	 		lcd_dev.setx_cmd=0X2A;
00000c  252a              MOVS     r5,#0x2a
00000e  8889              LDRH     r1,[r1,#4]            ;331
;;;335    			lcd_dev.sety_cmd=0X2B;  	 
000010  262b              MOVS     r6,#0x2b
;;;336    			if(lcd_dev.id==0X5310)
;;;337    			{
;;;338    				lcd_dev.width=320;
;;;339    				lcd_dev.height=480;
;;;340    			}
;;;341    		}else if(lcd_dev.id==0x5510)
000012  f2455b10          MOV      r11,#0x5510
;;;342    		{
;;;343    			lcd_dev.wram_cmd=0X2C00;
000016  f44f5e30          MOV      lr,#0x2c00
;;;344    	 		lcd_dev.setx_cmd=0X2A00;
;;;345    			lcd_dev.sety_cmd=0X2B00; 
;;;346    			lcd_dev.width=480;
;;;347    			lcd_dev.height=800;
00001a  f44f7748          MOV      r7,#0x320
00001e  f04f09f0          MOV      r9,#0xf0              ;329
000022  f2493a41          MOV      r10,#0x9341           ;331
000026  f44f78a0          MOV      r8,#0x140             ;330
00002a  f2453c10          MOV      r12,#0x5310           ;331
00002e  f44f72f0          MOV      r2,#0x1e0             ;339
000032  b158              CBZ      r0,|L6.76|
;;;348    		}else if(lcd_dev.id==0X1963)
;;;349    		{
;;;350    			lcd_dev.wram_cmd=0X2C;	//设置写入GRAM的指令 
;;;351    			lcd_dev.setx_cmd=0X2B;	//设置写X坐标指令
;;;352    			lcd_dev.sety_cmd=0X2A;	//设置写Y坐标指令
;;;353    			lcd_dev.width=480;		//设置宽度480
;;;354    			lcd_dev.height=800;		//设置高度800  
;;;355    		}
;;;356    	}else 				//横屏
;;;357    	{	  				 
;;;358    		lcd_dev.width=320;
000034  f8a38000          STRH     r8,[r3,#0]
;;;359    		lcd_dev.height=240;
000038  f8a39002          STRH     r9,[r3,#2]
;;;360    		if(lcd_dev.id==0X9341||lcd_dev.id==0X5310)
00003c  4551              CMP      r1,r10
00003e  d001              BEQ      |L6.68|
000040  4561              CMP      r1,r12
000042  d129              BNE      |L6.152|
                  |L6.68|
;;;361    		{
;;;362    			lcd_dev.wram_cmd=0X2C;
000044  811c              STRH     r4,[r3,#8]
;;;363    	 		lcd_dev.setx_cmd=0X2A;
000046  815d              STRH     r5,[r3,#0xa]
;;;364    			lcd_dev.sety_cmd=0X2B;  	 
000048  819e              STRH     r6,[r3,#0xc]
00004a  e039              B        |L6.192|
                  |L6.76|
00004c  f8a39000          STRH     r9,[r3,#0]            ;329
000050  f8a38002          STRH     r8,[r3,#2]            ;330
000054  4551              CMP      r1,r10                ;331
000056  d001              BEQ      |L6.92|
000058  4561              CMP      r1,r12                ;331
00005a  d108              BNE      |L6.110|
                  |L6.92|
00005c  811c              STRH     r4,[r3,#8]            ;333
00005e  815d              STRH     r5,[r3,#0xa]          ;334
000060  819e              STRH     r6,[r3,#0xc]          ;335
000062  4561              CMP      r1,r12                ;336
000064  d131              BNE      |L6.202|
000066  f8a38000          STRH     r8,[r3,#0]            ;338
00006a  805a              STRH     r2,[r3,#2]            ;339
00006c  e02d              B        |L6.202|
                  |L6.110|
00006e  4559              CMP      r1,r11                ;341
000070  d108              BNE      |L6.132|
000072  f8a3e008          STRH     lr,[r3,#8]            ;343
000076  f44f5028          MOV      r0,#0x2a00            ;344
00007a  8158              STRH     r0,[r3,#0xa]          ;344
00007c  f44f502c          MOV      r0,#0x2b00            ;345
000080  8198              STRH     r0,[r3,#0xc]          ;345
000082  e006              B        |L6.146|
                  |L6.132|
000084  f5a150c8          SUB      r0,r1,#0x1900         ;348
000088  3863              SUBS     r0,r0,#0x63           ;348
00008a  d11e              BNE      |L6.202|
00008c  811c              STRH     r4,[r3,#8]            ;350
00008e  815e              STRH     r6,[r3,#0xa]          ;351
000090  819d              STRH     r5,[r3,#0xc]          ;352
                  |L6.146|
000092  801a              STRH     r2,[r3,#0]            ;353
000094  805f              STRH     r7,[r3,#2]            ;354
000096  e018              B        |L6.202|
                  |L6.152|
;;;365    		}else if(lcd_dev.id==0x5510)
000098  4559              CMP      r1,r11
00009a  d108              BNE      |L6.174|
;;;366    		{
;;;367    			lcd_dev.wram_cmd=0X2C00;
00009c  f8a3e008          STRH     lr,[r3,#8]
;;;368    	 		lcd_dev.setx_cmd=0X2A00;
0000a0  f44f5028          MOV      r0,#0x2a00
0000a4  8158              STRH     r0,[r3,#0xa]
;;;369    			lcd_dev.sety_cmd=0X2B00; 
0000a6  f44f502c          MOV      r0,#0x2b00
0000aa  8198              STRH     r0,[r3,#0xc]
;;;370    			lcd_dev.width=800;
;;;371    			lcd_dev.height=480;
0000ac  e006              B        |L6.188|
                  |L6.174|
;;;372    		}else if(lcd_dev.id==0X1963)
0000ae  f5a150c8          SUB      r0,r1,#0x1900
0000b2  3863              SUBS     r0,r0,#0x63
0000b4  d104              BNE      |L6.192|
;;;373    		{
;;;374    			lcd_dev.wram_cmd=0X2C;	//设置写入GRAM的指令 
0000b6  811c              STRH     r4,[r3,#8]
;;;375    			lcd_dev.setx_cmd=0X2A;	//设置写X坐标指令
0000b8  815d              STRH     r5,[r3,#0xa]
;;;376    			lcd_dev.sety_cmd=0X2B;	//设置写Y坐标指令
0000ba  819e              STRH     r6,[r3,#0xc]
                  |L6.188|
;;;377    			lcd_dev.width=800;		//设置宽度800
0000bc  801f              STRH     r7,[r3,#0]
;;;378    			lcd_dev.height=480;		//设置高度480  
0000be  805a              STRH     r2,[r3,#2]
                  |L6.192|
;;;379    		}
;;;380    		if(lcd_dev.id==0X5310)
0000c0  4561              CMP      r1,r12
0000c2  d102              BNE      |L6.202|
;;;381    		{ 	 
;;;382    			lcd_dev.width=480;
0000c4  801a              STRH     r2,[r3,#0]
;;;383    			lcd_dev.height=320; 			
0000c6  f8a38002          STRH     r8,[r3,#2]
                  |L6.202|
;;;384    		}
;;;385    	} 
;;;386    	lcd_scan_dir(DFT_SCAN_DIR);	//默认扫描方向
0000ca  e8bd4ff0          POP      {r4-r11,lr}
0000ce  2000              MOVS     r0,#0
0000d0  f7ffbffe          B.W      lcd_scan_dir
;;;387    }	 
;;;388    //设置窗口(对RGB屏无效),并自动设置画点坐标到窗口左上角(sx,sy).
                          ENDP

                  |L6.212|
                          DCD      ||.bss||

                          AREA ||i.lcd_draw_line||, CODE, READONLY, ALIGN=1

                  lcd_draw_line PROC
;;;1849   //x2,y2:终点坐标  
;;;1850   void lcd_draw_line(u16 x1, u16 y1, u16 x2, u16 y2)
000000  e92d4ffe          PUSH     {r1-r11,lr}
;;;1851   {
;;;1852   	u16 t; 
;;;1853   	int xerr=0,yerr=0,delta_x,delta_y,distance; 
000004  2600              MOVS     r6,#0
;;;1854   	int incx,incy,uRow,uCol; 
;;;1855   	delta_x=x2-x1; //计算坐标增量 
000006  eba20800          SUB      r8,r2,r0
;;;1856   	delta_y=y2-y1; 
;;;1857   	uRow=x1; 
00000a  4682              MOV      r10,r0
00000c  1a5f              SUBS     r7,r3,r1              ;1856
;;;1858   	uCol=y1; 
;;;1859   	if(delta_x>0)incx=1; //设置单步方向 
;;;1860   	else if(delta_x==0)incx=0;//垂直线 
;;;1861   	else {incx=-1;delta_x=-delta_x;} 
00000e  1e70              SUBS     r0,r6,#1
000010  4635              MOV      r5,r6                 ;1853
000012  4689              MOV      r9,r1                 ;1858
000014  f1b80f00          CMP      r8,#0                 ;1859
000018  dd02              BLE      |L7.32|
00001a  f04f0101          MOV      r1,#1                 ;1859
00001e  e002              B        |L7.38|
                  |L7.32|
000020  d103              BNE      |L7.42|
000022  f04f0100          MOV      r1,#0                 ;1860
                  |L7.38|
000026  9101              STR      r1,[sp,#4]            ;1860
000028  e002              B        |L7.48|
                  |L7.42|
00002a  f1c80800          RSB      r8,r8,#0
00002e  9001              STR      r0,[sp,#4]
                  |L7.48|
;;;1862   	if(delta_y>0)incy=1; 
000030  2f00              CMP      r7,#0
000032  dd02              BLE      |L7.58|
000034  f04f0001          MOV      r0,#1
000038  e002              B        |L7.64|
                  |L7.58|
;;;1863   	else if(delta_y==0)incy=0;//水平线 
00003a  d103              BNE      |L7.68|
00003c  f04f0000          MOV      r0,#0
                  |L7.64|
000040  9000              STR      r0,[sp,#0]
000042  e002              B        |L7.74|
                  |L7.68|
;;;1864   	else{incy=-1;delta_y=-delta_y;} 
000044  f1c70700          RSB      r7,r7,#0
000048  9000              STR      r0,[sp,#0]
                  |L7.74|
;;;1865   	if( delta_x>delta_y)distance=delta_x; //选取基本增量坐标轴 
00004a  4640              MOV      r0,r8
00004c  45b8              CMP      r8,r7
00004e  dd01              BLE      |L7.84|
000050  4604              MOV      r4,r0
000052  e000              B        |L7.86|
                  |L7.84|
;;;1866   	else distance=delta_y; 
000054  463c              MOV      r4,r7
                  |L7.86|
;;;1867   	for(t=0;t<=distance+1;t++ )//画线输出 
000056  1c60              ADDS     r0,r4,#1
000058  f04f0b00          MOV      r11,#0
00005c  9002              STR      r0,[sp,#8]
00005e  e015              B        |L7.140|
                  |L7.96|
;;;1868   	{  
;;;1869   		lcd_draw_point(uRow,uCol);//画点 
000060  fa1ff189          UXTH     r1,r9
000064  fa1ff08a          UXTH     r0,r10
000068  f7fffffe          BL       lcd_draw_point
;;;1870   		xerr+=delta_x ; 
00006c  4446              ADD      r6,r6,r8
;;;1871   		yerr+=delta_y ; 
00006e  443d              ADD      r5,r5,r7
;;;1872   		if(xerr>distance) 
000070  42a6              CMP      r6,r4
000072  dd02              BLE      |L7.122|
;;;1873   		{ 
;;;1874   			xerr-=distance; 
;;;1875   			uRow+=incx; 
000074  9901              LDR      r1,[sp,#4]
000076  1b36              SUBS     r6,r6,r4              ;1874
000078  448a              ADD      r10,r10,r1
                  |L7.122|
;;;1876   		} 
;;;1877   		if(yerr>distance) 
00007a  42a5              CMP      r5,r4
00007c  dd02              BLE      |L7.132|
;;;1878   		{ 
;;;1879   			yerr-=distance; 
;;;1880   			uCol+=incy; 
00007e  9900              LDR      r1,[sp,#0]
000080  1b2d              SUBS     r5,r5,r4              ;1879
000082  4489              ADD      r9,r9,r1
                  |L7.132|
000084  f10b0001          ADD      r0,r11,#1             ;1867
000088  fa1ffb80          UXTH     r11,r0                ;1867
                  |L7.140|
00008c  9902              LDR      r1,[sp,#8]            ;1867
00008e  458b              CMP      r11,r1                ;1867
000090  dde6              BLE      |L7.96|
;;;1881   		} 
;;;1882   	}  
;;;1883   }    
000092  e8bd8ffe          POP      {r1-r11,pc}
;;;1884   //画矩形	  
                          ENDP


                          AREA ||i.lcd_draw_point||, CODE, READONLY, ALIGN=2

                  lcd_draw_point PROC
;;;272    //point_color:此点的颜色
;;;273    void lcd_draw_point(u16 x,u16 y)
000000  b500              PUSH     {lr}
;;;274    { 
;;;275    	lcd_set_cursor(x,y);		//设置光标位置 
000002  f7fffffe          BL       lcd_set_cursor
;;;276    	lcd_write_ram_prepare();	//开始写入GRAM
000006  f7fffffe          BL       lcd_write_ram_prepare
;;;277    	LCD->lcd_ram=point_color;  
00000a  4802              LDR      r0,|L8.20|
00000c  4902              LDR      r1,|L8.24|
00000e  8800              LDRH     r0,[r0,#0]  ; point_color
000010  8008              STRH     r0,[r1,#0]
;;;278    }
000012  bd00              POP      {pc}
;;;279    //快速画点
                          ENDP

                  |L8.20|
                          DCD      ||.data||
                  |L8.24|
                          DCD      0x60080000

                          AREA ||i.lcd_draw_rectangle||, CODE, READONLY, ALIGN=1

                  lcd_draw_rectangle PROC
;;;1885   //(x1,y1),(x2,y2):矩形的对角坐标
;;;1886   void lcd_draw_rectangle(u16 x1, u16 y1, u16 x2, u16 y2)
000000  b5f0              PUSH     {r4-r7,lr}
;;;1887   {
000002  461c              MOV      r4,r3
000004  4615              MOV      r5,r2
000006  460e              MOV      r6,r1
000008  4607              MOV      r7,r0
;;;1888   	lcd_draw_line(x1,y1,x2,y1);
00000a  460b              MOV      r3,r1
00000c  f7fffffe          BL       lcd_draw_line
;;;1889   	lcd_draw_line(x1,y1,x1,y2);
000010  463a              MOV      r2,r7
000012  4623              MOV      r3,r4
000014  4631              MOV      r1,r6
000016  4610              MOV      r0,r2
000018  f7fffffe          BL       lcd_draw_line
;;;1890   	lcd_draw_line(x1,y2,x2,y2);
00001c  4623              MOV      r3,r4
00001e  462a              MOV      r2,r5
000020  4619              MOV      r1,r3
000022  4638              MOV      r0,r7
000024  f7fffffe          BL       lcd_draw_line
;;;1891   	lcd_draw_line(x2,y1,x2,y2);
000028  462a              MOV      r2,r5
00002a  4623              MOV      r3,r4
00002c  4631              MOV      r1,r6
00002e  e8bd40f0          POP      {r4-r7,lr}
000032  4610              MOV      r0,r2
000034  f7ffbffe          B.W      lcd_draw_line
;;;1892   }
;;;1893   //在指定位置画一个指定大小的圆
                          ENDP


                          AREA ||i.lcd_draw_circle||, CODE, READONLY, ALIGN=1

                  lcd_draw_circle PROC
;;;1895   //r    :半径
;;;1896   void lcd_draw_circle(u16 x0,u16 y0,u8 r)
000000  e92d4ffc          PUSH     {r2-r11,lr}
;;;1897   {
000004  4680              MOV      r8,r0
;;;1898   	int a,b;
;;;1899   	int di;
;;;1900   	a=0;b=r;	  
000006  2400              MOVS     r4,#0
000008  4615              MOV      r5,r2
;;;1901   	di=3-(r<<1);             //判断下个点位置的标志
00000a  2003              MOVS     r0,#3
00000c  460f              MOV      r7,r1                 ;1897
00000e  eba00645          SUB      r6,r0,r5,LSL #1
000012  e049              B        |L10.168|
                  |L10.20|
;;;1902   	while(a<=b)
;;;1903   	{
;;;1904   		lcd_draw_point(x0+a,y0-b);             //5
000014  1b78              SUBS     r0,r7,r5
000016  b281              UXTH     r1,r0
000018  eb080a04          ADD      r10,r8,r4
00001c  9001              STR      r0,[sp,#4]
00001e  fa1ff08a          UXTH     r0,r10
000022  f7fffffe          BL       lcd_draw_point
;;;1905    		lcd_draw_point(x0+b,y0-a);             //0           
000026  1b38              SUBS     r0,r7,r4
000028  b281              UXTH     r1,r0
00002a  eb080905          ADD      r9,r8,r5
00002e  9000              STR      r0,[sp,#0]
000030  fa1ff089          UXTH     r0,r9
000034  f7fffffe          BL       lcd_draw_point
;;;1906   		lcd_draw_point(x0+b,y0+a);             //4               
000038  eb070b04          ADD      r11,r7,r4
00003c  fa1ff18b          UXTH     r1,r11
000040  fa1ff089          UXTH     r0,r9
000044  f7fffffe          BL       lcd_draw_point
;;;1907   		lcd_draw_point(x0+a,y0+b);             //6 
000048  eb070905          ADD      r9,r7,r5
00004c  fa1ff189          UXTH     r1,r9
000050  fa1ff08a          UXTH     r0,r10
000054  f7fffffe          BL       lcd_draw_point
;;;1908   		lcd_draw_point(x0-a,y0+b);             //1       
000058  eba80a04          SUB      r10,r8,r4
00005c  fa1ff189          UXTH     r1,r9
000060  fa1ff08a          UXTH     r0,r10
000064  f7fffffe          BL       lcd_draw_point
;;;1909    		lcd_draw_point(x0-b,y0+a);             
000068  eba80905          SUB      r9,r8,r5
00006c  fa1ff18b          UXTH     r1,r11
000070  fa1ff089          UXTH     r0,r9
000074  f7fffffe          BL       lcd_draw_point
;;;1910   		lcd_draw_point(x0-a,y0-b);             //2             
000078  9801              LDR      r0,[sp,#4]
00007a  b281              UXTH     r1,r0
00007c  fa1ff08a          UXTH     r0,r10
000080  f7fffffe          BL       lcd_draw_point
;;;1911     		lcd_draw_point(x0-b,y0-a);             //7     	         
000084  9800              LDR      r0,[sp,#0]
000086  b281              UXTH     r1,r0
000088  fa1ff089          UXTH     r0,r9
00008c  f7fffffe          BL       lcd_draw_point
000090  1c64              ADDS     r4,r4,#1
;;;1912   		a++;
;;;1913   		//使用Bresenham算法画圆     
;;;1914   		if(di<0)di +=4*a+6;	  
000092  2e00              CMP      r6,#0
000094  da03              BGE      |L10.158|
000096  eb060684          ADD      r6,r6,r4,LSL #2
00009a  1db6              ADDS     r6,r6,#6
00009c  e004              B        |L10.168|
                  |L10.158|
;;;1915   		else
;;;1916   		{
;;;1917   			di+=10+4*(a-b);   
00009e  1b60              SUBS     r0,r4,r5
0000a0  eb060680          ADD      r6,r6,r0,LSL #2
0000a4  1e6d              SUBS     r5,r5,#1
0000a6  360a              ADDS     r6,r6,#0xa
                  |L10.168|
0000a8  42ac              CMP      r4,r5                 ;1902
0000aa  ddb3              BLE      |L10.20|
;;;1918   			b--;
;;;1919   		} 						    
;;;1920   	}
;;;1921   } 									  
0000ac  e8bd8ffc          POP      {r2-r11,pc}
;;;1922   //在指定位置显示一个字符
                          ENDP


                          AREA ||i.lcd_fast_draw_point||, CODE, READONLY, ALIGN=2

                  lcd_fast_draw_point PROC
;;;281    //color:颜色
;;;282    void lcd_fast_draw_point(u16 x,u16 y,u32 color)
000000  e92d41f0          PUSH     {r4-r8,lr}
;;;283    {	   
;;;284    	if(lcd_dev.id==0X9341||lcd_dev.id==0X5310)
000004  4d36              LDR      r5,|L11.224|
000006  4690              MOV      r8,r2                 ;283
000008  460c              MOV      r4,r1                 ;283
00000a  4602              MOV      r2,r0                 ;283
;;;285    	{
;;;286    		lcd_wr_reg(lcd_dev.setx_cmd); 
;;;287    		lcd_write_data_16bit(x>>8);lcd_write_data_16bit(x&0XFF);  			 
;;;288    		lcd_wr_reg(lcd_dev.sety_cmd); 
;;;289    		lcd_write_data_16bit(y>>8);lcd_write_data_16bit(y&0XFF); 		 	 
00000c  0a0f              LSRS     r7,r1,#8
00000e  88a8              LDRH     r0,[r5,#4]            ;284  ; lcd_dev
000010  4629              MOV      r1,r5                 ;284
000012  0a16              LSRS     r6,r2,#8              ;287
000014  8949              LDRH     r1,[r1,#0xa]          ;286
000016  f5a04313          SUB      r3,r0,#0x9300         ;284
00001a  3b41              SUBS     r3,r3,#0x41           ;284
00001c  d00b              BEQ      |L11.54|
00001e  f5a043a6          SUB      r3,r0,#0x5300         ;284
000022  3b10              SUBS     r3,r3,#0x10           ;284
000024  d007              BEQ      |L11.54|
;;;290    	}else if(lcd_dev.id==0X5510)
000026  f5b37300          SUBS     r3,r3,#0x200
00002a  d011              BEQ      |L11.80|
;;;291    	{
;;;292    		lcd_wr_reg(lcd_dev.setx_cmd);lcd_write_data_16bit(x>>8);  
;;;293    		lcd_wr_reg(lcd_dev.setx_cmd+1);lcd_write_data_16bit(x&0XFF);	  
;;;294    		lcd_wr_reg(lcd_dev.sety_cmd);lcd_write_data_16bit(y>>8);  
;;;295    		lcd_wr_reg(lcd_dev.sety_cmd+1);lcd_write_data_16bit(y&0XFF); 
;;;296    	}else if(lcd_dev.id==0X1963)
00002c  f5a053c8          SUB      r3,r0,#0x1900
000030  3b63              SUBS     r3,r3,#0x63
000032  d027              BEQ      |L11.132|
000034  e04b              B        |L11.206|
                  |L11.54|
000036  4608              MOV      r0,r1
000038  f7fffffe          BL       lcd_wr_reg
00003c  4630              MOV      r0,r6                 ;286
00003e  f7fffffe          BL       lcd_write_data_16bit
000042  b2d0              UXTB     r0,r2                 ;287
000044  f7fffffe          BL       lcd_write_data_16bit
000048  89a8              LDRH     r0,[r5,#0xc]          ;288  ; lcd_dev
00004a  f7fffffe          BL       lcd_wr_reg
00004e  e038              B        |L11.194|
                  |L11.80|
000050  4608              MOV      r0,r1                 ;289
000052  f7fffffe          BL       lcd_wr_reg
000056  4630              MOV      r0,r6                 ;292
000058  f7fffffe          BL       lcd_write_data_16bit
00005c  8968              LDRH     r0,[r5,#0xa]          ;293  ; lcd_dev
00005e  1c40              ADDS     r0,r0,#1              ;293
000060  b280              UXTH     r0,r0                 ;293
000062  f7fffffe          BL       lcd_wr_reg
000066  b2d0              UXTB     r0,r2                 ;293
000068  f7fffffe          BL       lcd_write_data_16bit
00006c  89a8              LDRH     r0,[r5,#0xc]          ;294  ; lcd_dev
00006e  f7fffffe          BL       lcd_wr_reg
000072  4638              MOV      r0,r7                 ;294
000074  f7fffffe          BL       lcd_write_data_16bit
000078  89a8              LDRH     r0,[r5,#0xc]          ;295  ; lcd_dev
00007a  1c40              ADDS     r0,r0,#1              ;295
00007c  b280              UXTH     r0,r0                 ;295
00007e  f7fffffe          BL       lcd_wr_reg
000082  e021              B        |L11.200|
                  |L11.132|
;;;297    	{
;;;298    		if(lcd_dev.dir==0)x=lcd_dev.width-1-x;
000084  79a8              LDRB     r0,[r5,#6]  ; lcd_dev
000086  b918              CBNZ     r0,|L11.144|
000088  8828              LDRH     r0,[r5,#0]  ; lcd_dev
00008a  1a80              SUBS     r0,r0,r2
00008c  1e40              SUBS     r0,r0,#1
00008e  b282              UXTH     r2,r0
                  |L11.144|
000090  4608              MOV      r0,r1
;;;299    		lcd_wr_reg(lcd_dev.setx_cmd); 
000092  f7fffffe          BL       lcd_wr_reg
;;;300    		lcd_write_data_16bit(x>>8);lcd_write_data_16bit(x&0XFF); 		
000096  0a16              LSRS     r6,r2,#8
000098  4630              MOV      r0,r6
00009a  f7fffffe          BL       lcd_write_data_16bit
00009e  b2d0              UXTB     r0,r2
0000a0  f7fffffe          BL       lcd_write_data_16bit
0000a4  4630              MOV      r0,r6
;;;301    		lcd_write_data_16bit(x>>8);lcd_write_data_16bit(x&0XFF); 		
0000a6  f7fffffe          BL       lcd_write_data_16bit
0000aa  b2d0              UXTB     r0,r2
0000ac  f7fffffe          BL       lcd_write_data_16bit
;;;302    		lcd_wr_reg(lcd_dev.sety_cmd); 
0000b0  89a8              LDRH     r0,[r5,#0xc]  ; lcd_dev
0000b2  f7fffffe          BL       lcd_wr_reg
0000b6  4638              MOV      r0,r7
;;;303    		lcd_write_data_16bit(y>>8);lcd_write_data_16bit(y&0XFF); 		
0000b8  f7fffffe          BL       lcd_write_data_16bit
0000bc  b2e0              UXTB     r0,r4
0000be  f7fffffe          BL       lcd_write_data_16bit
                  |L11.194|
0000c2  4638              MOV      r0,r7
0000c4  f7fffffe          BL       lcd_write_data_16bit
                  |L11.200|
;;;304    		lcd_write_data_16bit(y>>8);lcd_write_data_16bit(y&0XFF); 		
0000c8  b2e0              UXTB     r0,r4
0000ca  f7fffffe          BL       lcd_write_data_16bit
                  |L11.206|
;;;305    	}		 
;;;306    	LCD->lcd_reg=lcd_dev.wram_cmd; 
0000ce  4905              LDR      r1,|L11.228|
0000d0  8928              LDRH     r0,[r5,#8]  ; lcd_dev
0000d2  8008              STRH     r0,[r1,#0]
;;;307    	LCD->lcd_ram=color; 
0000d4  1c89              ADDS     r1,r1,#2
0000d6  f8a18000          STRH     r8,[r1,#0]
;;;308    }	 
0000da  e8bd81f0          POP      {r4-r8,pc}
;;;309    //SSD1963 背光设置
                          ENDP

0000de  0000              DCW      0x0000
                  |L11.224|
                          DCD      ||.bss||
                  |L11.228|
                          DCD      0x6007fffe

                          AREA ||i.lcd_fill||, CODE, READONLY, ALIGN=2

                  lcd_fill PROC
;;;1818   //color:要填充的颜色
;;;1819   void lcd_fill(u16 sx,u16 sy,u16 ex,u16 ey,u32 color)
000000  e92d43f0          PUSH     {r4-r9,lr}
;;;1820   {          
000004  461f              MOV      r7,r3
000006  4681              MOV      r9,r0
;;;1821   	u16 i,j;
;;;1822   	u16 xlen=0; 
;;;1823   	xlen=ex-sx+1;	 
000008  eba20009          SUB      r0,r2,r9
;;;1824   	for(i=sy;i<=ey;i++)
;;;1825   	{
;;;1826   		lcd_set_cursor(sx,i);      				//设置光标位置 
;;;1827   		lcd_write_ram_prepare();     			//开始写入GRAM	  
;;;1828   		for(j=0;j<xlen;j++)LCD->lcd_ram=color;	//显示颜色 	    
00000c  9b07              LDR      r3,[sp,#0x1c]
00000e  1c40              ADDS     r0,r0,#1              ;1823
000010  460c              MOV      r4,r1                 ;1820
000012  b286              UXTH     r6,r0                 ;1823
000014  b29d              UXTH     r5,r3
000016  f8df802c          LDR      r8,|L12.68|
00001a  e00f              B        |L12.60|
                  |L12.28|
00001c  4621              MOV      r1,r4                 ;1826
00001e  4648              MOV      r0,r9                 ;1826
000020  f7fffffe          BL       lcd_set_cursor
000024  f7fffffe          BL       lcd_write_ram_prepare
000028  2000              MOVS     r0,#0
00002a  4641              MOV      r1,r8
00002c  e002              B        |L12.52|
                  |L12.46|
00002e  800d              STRH     r5,[r1,#0]
000030  1c40              ADDS     r0,r0,#1
000032  b280              UXTH     r0,r0
                  |L12.52|
000034  42b0              CMP      r0,r6
000036  d3fa              BCC      |L12.46|
000038  1c64              ADDS     r4,r4,#1
00003a  b2a4              UXTH     r4,r4                 ;1824
                  |L12.60|
00003c  42bc              CMP      r4,r7                 ;1824
00003e  d9ed              BLS      |L12.28|
;;;1829   	}  
;;;1830   }  
000040  e8bd83f0          POP      {r4-r9,pc}
;;;1831   //在指定区域内填充指定颜色块			 
                          ENDP

                  |L12.68|
                          DCD      0x60080000

                          AREA ||i.lcd_init||, CODE, READONLY, ALIGN=2

                  lcd_init PROC
;;;436    //该初始化函数可以初始化各种型号的LCD(详见本.c文件最前面的描述)
;;;437    void lcd_init(void)
000000  e92d5ffc          PUSH     {r2-r12,lr}
;;;438    { 	 
;;;439    	RCC->AHB1ENR|=1<<1;			//使能PORTB时钟 
000004  48fe              LDR      r0,|L13.1024|
000006  6800              LDR      r0,[r0,#0]
000008  49fd              LDR      r1,|L13.1024|
00000a  f0400002          ORR      r0,r0,#2
00000e  6008              STR      r0,[r1,#0]
;;;440    	RCC->AHB1ENR|=3<<3;    		//使能PD,PE   
000010  6808              LDR      r0,[r1,#0]
000012  f0400018          ORR      r0,r0,#0x18
000016  6008              STR      r0,[r1,#0]
;;;441    	RCC->AHB3ENR|=1<<0;     	//使能FMC时钟  
000018  48f9              LDR      r0,|L13.1024|
00001a  3008              ADDS     r0,r0,#8
00001c  6801              LDR      r1,[r0,#0]
00001e  f0410101          ORR      r1,r1,#1
000022  6001              STR      r1,[r0,#0]
;;;442    	GPIO_Set(GPIOB,PIN5,GPIO_MODE_OUT,GPIO_OTYPE_PP,GPIO_SPEED_50M,GPIO_PUPD_PU);							//PB5 推挽输出,控制背光
000024  f04f0801          MOV      r8,#1
000028  2002              MOVS     r0,#2
00002a  e9cd0800          STRD     r0,r8,[sp,#0]
00002e  4644              MOV      r4,r8
000030  2300              MOVS     r3,#0
000032  4642              MOV      r2,r8
000034  2120              MOVS     r1,#0x20
000036  48f3              LDR      r0,|L13.1028|
000038  f7fffffe          BL       GPIO_Set
;;;443    	GPIO_Set(GPIOD,(3<<0)|(3<<4)|(15<<7)|(7<<13),GPIO_MODE_AF,GPIO_OTYPE_PP,GPIO_SPEED_100M,GPIO_PUPD_PU);	//PD0,1,4,5,7,8,9,10,13,14,15 AF OUT
00003c  2503              MOVS     r5,#3
00003e  4ef2              LDR      r6,|L13.1032|
000040  e9cd5400          STRD     r5,r4,[sp,#0]
000044  2300              MOVS     r3,#0
000046  2202              MOVS     r2,#2
000048  f24e71b3          MOV      r1,#0xe7b3
00004c  4630              MOV      r0,r6
00004e  f7fffffe          BL       GPIO_Set
;;;444    	GPIO_Set(GPIOE,(0X1FF<<7),GPIO_MODE_AF,GPIO_OTYPE_PP,GPIO_SPEED_100M,GPIO_PUPD_PU);						//PE7~15,AF OUT
000052  e9cd5400          STRD     r5,r4,[sp,#0]
000056  4ced              LDR      r4,|L13.1036|
000058  2300              MOVS     r3,#0
00005a  2202              MOVS     r2,#2
00005c  f64f7180          MOV      r1,#0xff80
000060  4620              MOV      r0,r4
000062  f7fffffe          BL       GPIO_Set
;;;445    	GPIO_AF_Set(GPIOD,0,12);	//PD0,AF12
000066  220c              MOVS     r2,#0xc
000068  2100              MOVS     r1,#0
00006a  4630              MOV      r0,r6
00006c  f7fffffe          BL       GPIO_AF_Set
;;;446    	GPIO_AF_Set(GPIOD,1,12);	//PD1,AF12
000070  220c              MOVS     r2,#0xc
000072  2101              MOVS     r1,#1
000074  4630              MOV      r0,r6
000076  f7fffffe          BL       GPIO_AF_Set
;;;447    	GPIO_AF_Set(GPIOD,4,12);	//PD4,AF12
00007a  220c              MOVS     r2,#0xc
00007c  2104              MOVS     r1,#4
00007e  4630              MOV      r0,r6
000080  f7fffffe          BL       GPIO_AF_Set
;;;448    	GPIO_AF_Set(GPIOD,5,12);	//PD5,AF12 
000084  220c              MOVS     r2,#0xc
000086  2105              MOVS     r1,#5
000088  4630              MOV      r0,r6
00008a  f7fffffe          BL       GPIO_AF_Set
;;;449    	GPIO_AF_Set(GPIOD,7,12);	//PD7,AF12
00008e  220c              MOVS     r2,#0xc
000090  2107              MOVS     r1,#7
000092  4630              MOV      r0,r6
000094  f7fffffe          BL       GPIO_AF_Set
;;;450    	GPIO_AF_Set(GPIOD,8,12);	//PD8,AF12
000098  220c              MOVS     r2,#0xc
00009a  2108              MOVS     r1,#8
00009c  4630              MOV      r0,r6
00009e  f7fffffe          BL       GPIO_AF_Set
;;;451    	GPIO_AF_Set(GPIOD,9,12);	//PD9,AF12
0000a2  220c              MOVS     r2,#0xc
0000a4  2109              MOVS     r1,#9
0000a6  4630              MOV      r0,r6
0000a8  f7fffffe          BL       GPIO_AF_Set
;;;452    	GPIO_AF_Set(GPIOD,10,12);	//PD10,AF12 
0000ac  220c              MOVS     r2,#0xc
0000ae  210a              MOVS     r1,#0xa
0000b0  4630              MOV      r0,r6
0000b2  f7fffffe          BL       GPIO_AF_Set
;;;453    	GPIO_AF_Set(GPIOD,13,12);	//PD13,AF12 
0000b6  220c              MOVS     r2,#0xc
0000b8  210d              MOVS     r1,#0xd
0000ba  4630              MOV      r0,r6
0000bc  f7fffffe          BL       GPIO_AF_Set
;;;454    	GPIO_AF_Set(GPIOD,14,12);	//PD14,AF12
0000c0  220c              MOVS     r2,#0xc
0000c2  210e              MOVS     r1,#0xe
0000c4  4630              MOV      r0,r6
0000c6  f7fffffe          BL       GPIO_AF_Set
;;;455    	GPIO_AF_Set(GPIOD,15,12);	//PD15,AF12
0000ca  220c              MOVS     r2,#0xc
0000cc  210f              MOVS     r1,#0xf
0000ce  4630              MOV      r0,r6
0000d0  f7fffffe          BL       GPIO_AF_Set
;;;456    	
;;;457    	GPIO_AF_Set(GPIOE,7,12);	//PE7,AF12
0000d4  220c              MOVS     r2,#0xc
0000d6  2107              MOVS     r1,#7
0000d8  4620              MOV      r0,r4
0000da  f7fffffe          BL       GPIO_AF_Set
;;;458    	GPIO_AF_Set(GPIOE,8,12);	//PE8,AF12
0000de  220c              MOVS     r2,#0xc
0000e0  2108              MOVS     r1,#8
0000e2  4620              MOV      r0,r4
0000e4  f7fffffe          BL       GPIO_AF_Set
;;;459    	GPIO_AF_Set(GPIOE,9,12);	//PE9,AF12
0000e8  220c              MOVS     r2,#0xc
0000ea  2109              MOVS     r1,#9
0000ec  4620              MOV      r0,r4
0000ee  f7fffffe          BL       GPIO_AF_Set
;;;460    	GPIO_AF_Set(GPIOE,10,12);	//PE10,AF12
0000f2  220c              MOVS     r2,#0xc
0000f4  210a              MOVS     r1,#0xa
0000f6  4620              MOV      r0,r4
0000f8  f7fffffe          BL       GPIO_AF_Set
;;;461    	GPIO_AF_Set(GPIOE,11,12);	//PE11,AF12
0000fc  220c              MOVS     r2,#0xc
0000fe  210b              MOVS     r1,#0xb
000100  4620              MOV      r0,r4
000102  f7fffffe          BL       GPIO_AF_Set
;;;462    	GPIO_AF_Set(GPIOE,12,12);	//PE12,AF12
000106  220c              MOVS     r2,#0xc
000108  4611              MOV      r1,r2
00010a  4620              MOV      r0,r4
00010c  f7fffffe          BL       GPIO_AF_Set
;;;463    	GPIO_AF_Set(GPIOE,13,12);	//PE13,AF12
000110  220c              MOVS     r2,#0xc
000112  210d              MOVS     r1,#0xd
000114  4620              MOV      r0,r4
000116  f7fffffe          BL       GPIO_AF_Set
;;;464    	GPIO_AF_Set(GPIOE,14,12);	//PE14,AF12
00011a  220c              MOVS     r2,#0xc
00011c  210e              MOVS     r1,#0xe
00011e  4620              MOV      r0,r4
000120  f7fffffe          BL       GPIO_AF_Set
;;;465    	GPIO_AF_Set(GPIOE,15,12);	//PE15,AF12
000124  220c              MOVS     r2,#0xc
000126  210f              MOVS     r1,#0xf
000128  4620              MOV      r0,r4
00012a  f7fffffe          BL       GPIO_AF_Set
;;;466    	 
;;;467    	 
;;;468    	//寄存器清零
;;;469    	//bank1有NE1~4,每一个有一个BCR+TCR，所以总共八个寄存器。
;;;470    	//这里我们使用NE1 ，也就对应BTCR[0],[1]。				    
;;;471    	FMC_Bank1->BTCR[0]=0X00000000;
00012e  f04f4420          MOV      r4,#0xa0000000
000132  2000              MOVS     r0,#0
000134  6020              STR      r0,[r4,#0]
;;;472    	FMC_Bank1->BTCR[1]=0X00000000;
000136  6060              STR      r0,[r4,#4]
;;;473    	FMC_Bank1E->BWTR[0]=0X00000000;
000138  f8c40104          STR      r0,[r4,#0x104]
;;;474    	//操作BCR寄存器	使用异步模式
;;;475    	FMC_Bank1->BTCR[0]|=1<<12;		//存储器写使能
00013c  6820              LDR      r0,[r4,#0]
00013e  f4405080          ORR      r0,r0,#0x1000
000142  6020              STR      r0,[r4,#0]
;;;476    	FMC_Bank1->BTCR[0]|=1<<14;		//读写使用不同的时序
000144  6820              LDR      r0,[r4,#0]
000146  f4404080          ORR      r0,r0,#0x4000
00014a  6020              STR      r0,[r4,#0]
;;;477    	FMC_Bank1->BTCR[0]|=1<<4; 		//存储器数据宽度为16bit 	    
00014c  6820              LDR      r0,[r4,#0]
00014e  f0400010          ORR      r0,r0,#0x10
000152  6020              STR      r0,[r4,#0]
;;;478    	//操作BTR寄存器	
;;;479    	//读时序控制寄存器 							    
;;;480    	FMC_Bank1->BTCR[1]|=0<<28;		//模式A 	 						  	 
000154  6860              LDR      r0,[r4,#4]
000156  6060              STR      r0,[r4,#4]
;;;481    	FMC_Bank1->BTCR[1]|=0XF<<0; 	//地址建立时间(ADDSET)为15个HCLK 1/192M=5.2ns*15=78ns	
000158  6860              LDR      r0,[r4,#4]
00015a  f040000f          ORR      r0,r0,#0xf
00015e  6060              STR      r0,[r4,#4]
;;;482    	//因为液晶驱动IC的读数据的时候，速度不能太快,尤其是个别奇葩芯片。
;;;483    	FMC_Bank1->BTCR[1]|=70<<8;  	//数据保存时间(DATAST)为60个HCLK	=5.2*70=360ns
000160  6860              LDR      r0,[r4,#4]
000162  f440408c          ORR      r0,r0,#0x4600
000166  6060              STR      r0,[r4,#4]
;;;484    	//写时序控制寄存器  
;;;485    	FMC_Bank1E->BWTR[0]|=0<<28; 	//模式A 	 							    
000168  f8d40104          LDR      r0,[r4,#0x104]
00016c  f8c40104          STR      r0,[r4,#0x104]
;;;486    	FMC_Bank1E->BWTR[0]|=15<<0;		//地址建立时间(ADDSET)为15个HCLK=78ns
000170  f8d40104          LDR      r0,[r4,#0x104]
000174  f040000f          ORR      r0,r0,#0xf
000178  f8c40104          STR      r0,[r4,#0x104]
;;;487    	//10个HCLK（HCLK=192M）,某些液晶驱动IC的写信号脉宽，最少也得50ns。  	 
;;;488    	FMC_Bank1E->BWTR[0]|=15<<8; 	//数据保存时间(DATAST)为5.2ns*15个HCLK=78ns
00017c  f8d40104          LDR      r0,[r4,#0x104]
000180  f4406070          ORR      r0,r0,#0xf00
000184  f8c40104          STR      r0,[r4,#0x104]
;;;489    	//使能BANK1,区域1
;;;490    	FMC_Bank1->BTCR[0]|=1<<0;		//使能BANK1，区域1	    
000188  6820              LDR      r0,[r4,#0]
00018a  f0400001          ORR      r0,r0,#1
00018e  6020              STR      r0,[r4,#0]
;;;491    			 
;;;492    	delay_ms(50); // delay 50 ms 
000190  2032              MOVS     r0,#0x32
000192  f7fffffe          BL       delay_ms
;;;493    	
;;;494    	//尝试9341 ID的读取		
;;;495    	lcd_wr_reg(0XD3);				   
000196  20d3              MOVS     r0,#0xd3
000198  f7fffffe          BL       lcd_wr_reg
;;;496    	lcd_dev.id=lcd_read_data_16bit();	//dummy read 	
00019c  f7fffffe          BL       lcd_read_data_16bit
0001a0  4a9b              LDR      r2,|L13.1040|
0001a2  8090              STRH     r0,[r2,#4]
;;;497    	lcd_dev.id=lcd_read_data_16bit();	//读到0X00
0001a4  f7fffffe          BL       lcd_read_data_16bit
0001a8  8090              STRH     r0,[r2,#4]
;;;498    	lcd_dev.id=lcd_read_data_16bit();   	//读取93								   
0001aa  f7fffffe          BL       lcd_read_data_16bit
;;;499    	lcd_dev.id<<=8;
0001ae  f64f7bff          MOV      r11,#0xffff
0001b2  ea0b2000          AND      r0,r11,r0,LSL #8
0001b6  8090              STRH     r0,[r2,#4]
;;;500    	lcd_dev.id|=lcd_read_data_16bit();  	//读取41 	   			   
0001b8  f7fffffe          BL       lcd_read_data_16bit
0001bc  8891              LDRH     r1,[r2,#4]  ; lcd_dev
;;;501    	if(lcd_dev.id!=0X9341)		//非9341,尝试看看是不是NT35310
0001be  f2493a41          MOV      r10,#0x9341
0001c2  4308              ORRS     r0,r0,r1              ;500
0001c4  8090              STRH     r0,[r2,#4]            ;500
;;;502    	{	 
;;;503    		lcd_wr_reg(0XD4);				   
;;;504    		lcd_dev.id=lcd_read_data_16bit();//dummy read  
;;;505    		lcd_dev.id=lcd_read_data_16bit();//读回0X01	 
;;;506    		lcd_dev.id=lcd_read_data_16bit();//读回0X53	
;;;507    		lcd_dev.id<<=8;	 
;;;508    		lcd_dev.id|=lcd_read_data_16bit();	//这里读回0X10	 
;;;509    		if(lcd_dev.id!=0X5310)		//也不是NT35310,尝试看看是不是NT35510
0001c6  f2453610          MOV      r6,#0x5310
;;;510    		{
;;;511    			lcd_wr_reg(0XDA00);	
;;;512    			lcd_dev.id=lcd_read_data_16bit();		//读回0X00	 
;;;513    			lcd_wr_reg(0XDB00);	
;;;514    			lcd_dev.id=lcd_read_data_16bit();		//读回0X80
;;;515    			lcd_dev.id<<=8;	
;;;516    			lcd_wr_reg(0XDC00);	
;;;517    			lcd_dev.id|=lcd_read_data_16bit();		//读回0X00		
;;;518    			if(lcd_dev.id==0x8000)lcd_dev.id=0x5510;//NT35510读回的ID是8000H,为方便区分,我们强制设置为5510
0001ca  f2455510          MOV      r5,#0x5510
;;;519    			if(lcd_dev.id!=0X5510)			//也不是NT5510,尝试看看是不是SSD1963
;;;520    			{
;;;521    				lcd_wr_reg(0XA1);
;;;522    				lcd_dev.id=lcd_read_data_16bit();
;;;523    				lcd_dev.id=lcd_read_data_16bit();	//读回0X57
;;;524    				lcd_dev.id<<=8;	 
;;;525    				lcd_dev.id|=lcd_read_data_16bit();	//读回0X61	
;;;526    				if(lcd_dev.id==0X5761)lcd_dev.id=0X1963;//SSD1963读回的ID是5761H,为方便区分,我们强制设置为1963
0001ce  f6411763          MOV      r7,#0x1963
0001d2  4550              CMP      r0,r10                ;501
0001d4  d048              BEQ      |L13.616|
0001d6  20d4              MOVS     r0,#0xd4              ;503
0001d8  f7fffffe          BL       lcd_wr_reg
0001dc  f7fffffe          BL       lcd_read_data_16bit
0001e0  8090              STRH     r0,[r2,#4]            ;504
0001e2  f7fffffe          BL       lcd_read_data_16bit
0001e6  8090              STRH     r0,[r2,#4]            ;505
0001e8  f7fffffe          BL       lcd_read_data_16bit
0001ec  ea0b2000          AND      r0,r11,r0,LSL #8      ;507
0001f0  46d9              MOV      r9,r11                ;507
0001f2  8090              STRH     r0,[r2,#4]            ;507
0001f4  f7fffffe          BL       lcd_read_data_16bit
0001f8  8891              LDRH     r1,[r2,#4]            ;508  ; lcd_dev
0001fa  4308              ORRS     r0,r0,r1              ;508
0001fc  8090              STRH     r0,[r2,#4]            ;508
0001fe  42b0              CMP      r0,r6                 ;509
000200  d032              BEQ      |L13.616|
000202  f44f405a          MOV      r0,#0xda00            ;511
000206  f7fffffe          BL       lcd_wr_reg
00020a  f7fffffe          BL       lcd_read_data_16bit
00020e  8090              STRH     r0,[r2,#4]            ;512
000210  f44f405b          MOV      r0,#0xdb00            ;513
000214  f7fffffe          BL       lcd_wr_reg
000218  f7fffffe          BL       lcd_read_data_16bit
00021c  ea092000          AND      r0,r9,r0,LSL #8       ;515
000220  8090              STRH     r0,[r2,#4]            ;515
000222  f44f405c          MOV      r0,#0xdc00            ;516
000226  f7fffffe          BL       lcd_wr_reg
00022a  f7fffffe          BL       lcd_read_data_16bit
00022e  8891              LDRH     r1,[r2,#4]            ;517  ; lcd_dev
000230  4308              ORRS     r0,r0,r1              ;517
000232  8090              STRH     r0,[r2,#4]            ;517
000234  f5b04f00          CMP      r0,#0x8000            ;518
000238  d07e              BEQ      |L13.824|
00023a  42a8              CMP      r0,r5                 ;519
00023c  d014              BEQ      |L13.616|
00023e  20a1              MOVS     r0,#0xa1              ;521
000240  f7fffffe          BL       lcd_wr_reg
000244  f7fffffe          BL       lcd_read_data_16bit
000248  8090              STRH     r0,[r2,#4]            ;522
00024a  f7fffffe          BL       lcd_read_data_16bit
00024e  ea092000          AND      r0,r9,r0,LSL #8       ;524
000252  8090              STRH     r0,[r2,#4]            ;524
000254  f7fffffe          BL       lcd_read_data_16bit
000258  8891              LDRH     r1,[r2,#4]            ;525  ; lcd_dev
00025a  4308              ORRS     r0,r0,r1              ;525
00025c  f5a041ae          SUB      r1,r0,#0x5700
000260  8090              STRH     r0,[r2,#4]            ;525
000262  3961              SUBS     r1,r1,#0x61
000264  d100              BNE      |L13.616|
000266  8097              STRH     r7,[r2,#4]
                  |L13.616|
;;;527    			} 
;;;528    		}
;;;529    	}   
;;;530    	rt_kprintf(" LCD ID:%x\r\n",lcd_dev.id); //打印LCD ID   
000268  4691              MOV      r9,r2
00026a  8891              LDRH     r1,[r2,#4]  ; lcd_dev
00026c  a069              ADR      r0,|L13.1044|
00026e  f7fffffe          BL       rt_kprintf
;;;531    	if(lcd_dev.id==0X9341)	//9341初始化
000272  f8b90004          LDRH     r0,[r9,#4]  ; lcd_dev
000276  4550              CMP      r0,r10
000278  d17e              BNE      |L13.888|
;;;532    	{	 
;;;533    		lcd_wr_reg(0xCF);  
00027a  20cf              MOVS     r0,#0xcf
00027c  f7fffffe          BL       lcd_wr_reg
;;;534    		lcd_write_data_16bit(0x00); 
000280  2000              MOVS     r0,#0
000282  f7fffffe          BL       lcd_write_data_16bit
;;;535    		lcd_write_data_16bit(0xC1); 
000286  20c1              MOVS     r0,#0xc1
000288  f7fffffe          BL       lcd_write_data_16bit
;;;536    		lcd_write_data_16bit(0X30); 
00028c  2030              MOVS     r0,#0x30
00028e  f7fffffe          BL       lcd_write_data_16bit
;;;537    		lcd_wr_reg(0xED);  
000292  20ed              MOVS     r0,#0xed
000294  f7fffffe          BL       lcd_wr_reg
;;;538    		lcd_write_data_16bit(0x64); 
000298  2064              MOVS     r0,#0x64
00029a  f7fffffe          BL       lcd_write_data_16bit
;;;539    		lcd_write_data_16bit(0x03); 
00029e  2003              MOVS     r0,#3
0002a0  f7fffffe          BL       lcd_write_data_16bit
;;;540    		lcd_write_data_16bit(0X12); 
0002a4  2012              MOVS     r0,#0x12
0002a6  f7fffffe          BL       lcd_write_data_16bit
;;;541    		lcd_write_data_16bit(0X81); 
0002aa  2081              MOVS     r0,#0x81
0002ac  f7fffffe          BL       lcd_write_data_16bit
;;;542    		lcd_wr_reg(0xE8);  
0002b0  20e8              MOVS     r0,#0xe8
0002b2  f7fffffe          BL       lcd_wr_reg
;;;543    		lcd_write_data_16bit(0x85); 
0002b6  2085              MOVS     r0,#0x85
0002b8  f7fffffe          BL       lcd_write_data_16bit
;;;544    		lcd_write_data_16bit(0x10); 
0002bc  2010              MOVS     r0,#0x10
0002be  f7fffffe          BL       lcd_write_data_16bit
;;;545    		lcd_write_data_16bit(0x7A); 
0002c2  207a              MOVS     r0,#0x7a
0002c4  f7fffffe          BL       lcd_write_data_16bit
;;;546    		lcd_wr_reg(0xCB);  
0002c8  20cb              MOVS     r0,#0xcb
0002ca  f7fffffe          BL       lcd_wr_reg
;;;547    		lcd_write_data_16bit(0x39); 
0002ce  2039              MOVS     r0,#0x39
0002d0  f7fffffe          BL       lcd_write_data_16bit
;;;548    		lcd_write_data_16bit(0x2C); 
0002d4  202c              MOVS     r0,#0x2c
0002d6  f7fffffe          BL       lcd_write_data_16bit
;;;549    		lcd_write_data_16bit(0x00); 
0002da  2000              MOVS     r0,#0
0002dc  f7fffffe          BL       lcd_write_data_16bit
;;;550    		lcd_write_data_16bit(0x34); 
0002e0  2034              MOVS     r0,#0x34
0002e2  f7fffffe          BL       lcd_write_data_16bit
;;;551    		lcd_write_data_16bit(0x02); 
0002e6  2002              MOVS     r0,#2
0002e8  f7fffffe          BL       lcd_write_data_16bit
;;;552    		lcd_wr_reg(0xF7);  
0002ec  20f7              MOVS     r0,#0xf7
0002ee  f7fffffe          BL       lcd_wr_reg
;;;553    		lcd_write_data_16bit(0x20); 
0002f2  2020              MOVS     r0,#0x20
0002f4  f7fffffe          BL       lcd_write_data_16bit
;;;554    		lcd_wr_reg(0xEA);  
0002f8  20ea              MOVS     r0,#0xea
0002fa  f7fffffe          BL       lcd_wr_reg
;;;555    		lcd_write_data_16bit(0x00); 
0002fe  2000              MOVS     r0,#0
000300  f7fffffe          BL       lcd_write_data_16bit
;;;556    		lcd_write_data_16bit(0x00); 
000304  2000              MOVS     r0,#0
000306  f7fffffe          BL       lcd_write_data_16bit
;;;557    		lcd_wr_reg(0xC0);    //Power control 
00030a  20c0              MOVS     r0,#0xc0
00030c  f7fffffe          BL       lcd_wr_reg
;;;558    		lcd_write_data_16bit(0x1B);   //VRH[5:0] 
000310  201b              MOVS     r0,#0x1b
000312  f7fffffe          BL       lcd_write_data_16bit
;;;559    		lcd_wr_reg(0xC1);    //Power control 
000316  20c1              MOVS     r0,#0xc1
000318  f7fffffe          BL       lcd_wr_reg
;;;560    		lcd_write_data_16bit(0x01);   //SAP[2:0];BT[3:0] 
00031c  2001              MOVS     r0,#1
00031e  f7fffffe          BL       lcd_write_data_16bit
;;;561    		lcd_wr_reg(0xC5);    //VCM control 
000322  20c5              MOVS     r0,#0xc5
000324  f7fffffe          BL       lcd_wr_reg
;;;562    		lcd_write_data_16bit(0x30); 	 //3F
000328  2030              MOVS     r0,#0x30
00032a  f7fffffe          BL       lcd_write_data_16bit
;;;563    		lcd_write_data_16bit(0x30); 	 //3C
00032e  2030              MOVS     r0,#0x30
000330  f7fffffe          BL       lcd_write_data_16bit
;;;564    		lcd_wr_reg(0xC7);    //VCM control2 
000334  20c7              MOVS     r0,#0xc7
000336  e000              B        |L13.826|
                  |L13.824|
000338  e0ca              B        |L13.1232|
                  |L13.826|
00033a  f7fffffe          BL       lcd_wr_reg
;;;565    		lcd_write_data_16bit(0XB7); 
00033e  20b7              MOVS     r0,#0xb7
000340  f7fffffe          BL       lcd_write_data_16bit
;;;566    		lcd_wr_reg(0x36);    // Memory Access Control 
000344  2036              MOVS     r0,#0x36
000346  f7fffffe          BL       lcd_wr_reg
;;;567    		lcd_write_data_16bit(0x48); 
00034a  2048              MOVS     r0,#0x48
00034c  f7fffffe          BL       lcd_write_data_16bit
;;;568    		lcd_wr_reg(0x3A);   
000350  203a              MOVS     r0,#0x3a
000352  f7fffffe          BL       lcd_wr_reg
;;;569    		lcd_write_data_16bit(0x55); 
000356  2055              MOVS     r0,#0x55
000358  f7fffffe          BL       lcd_write_data_16bit
;;;570    		lcd_wr_reg(0xB1);   
00035c  20b1              MOVS     r0,#0xb1
00035e  f7fffffe          BL       lcd_wr_reg
;;;571    		lcd_write_data_16bit(0x00);   
000362  2000              MOVS     r0,#0
000364  f7fffffe          BL       lcd_write_data_16bit
;;;572    		lcd_write_data_16bit(0x1A); 
000368  201a              MOVS     r0,#0x1a
00036a  f7fffffe          BL       lcd_write_data_16bit
;;;573    		lcd_wr_reg(0xB6);    // Display Function Control 
00036e  20b6              MOVS     r0,#0xb6
000370  f7fffffe          BL       lcd_wr_reg
;;;574    		lcd_write_data_16bit(0x0A); 
000374  200a              MOVS     r0,#0xa
000376  e000              B        |L13.890|
                  |L13.888|
000378  e0ac              B        |L13.1236|
                  |L13.890|
00037a  f7fffffe          BL       lcd_write_data_16bit
;;;575    		lcd_write_data_16bit(0xA2); 
00037e  20a2              MOVS     r0,#0xa2
000380  f7fffffe          BL       lcd_write_data_16bit
;;;576    		lcd_wr_reg(0xF2);    // 3Gamma Function Disable 
000384  20f2              MOVS     r0,#0xf2
000386  f7fffffe          BL       lcd_wr_reg
;;;577    		lcd_write_data_16bit(0x00); 
00038a  2000              MOVS     r0,#0
00038c  f7fffffe          BL       lcd_write_data_16bit
;;;578    		lcd_wr_reg(0x26);    //Gamma curve selected 
000390  2026              MOVS     r0,#0x26
000392  f7fffffe          BL       lcd_wr_reg
;;;579    		lcd_write_data_16bit(0x01); 
000396  2001              MOVS     r0,#1
000398  f7fffffe          BL       lcd_write_data_16bit
;;;580    		lcd_wr_reg(0xE0);    //Set Gamma 
00039c  20e0              MOVS     r0,#0xe0
00039e  f7fffffe          BL       lcd_wr_reg
;;;581    		lcd_write_data_16bit(0x0F); 
0003a2  200f              MOVS     r0,#0xf
0003a4  f7fffffe          BL       lcd_write_data_16bit
;;;582    		lcd_write_data_16bit(0x2A); 
0003a8  202a              MOVS     r0,#0x2a
0003aa  f7fffffe          BL       lcd_write_data_16bit
;;;583    		lcd_write_data_16bit(0x28); 
0003ae  2028              MOVS     r0,#0x28
0003b0  f7fffffe          BL       lcd_write_data_16bit
;;;584    		lcd_write_data_16bit(0x08); 
0003b4  2008              MOVS     r0,#8
0003b6  f7fffffe          BL       lcd_write_data_16bit
;;;585    		lcd_write_data_16bit(0x0E); 
0003ba  200e              MOVS     r0,#0xe
0003bc  f7fffffe          BL       lcd_write_data_16bit
;;;586    		lcd_write_data_16bit(0x08); 
0003c0  2008              MOVS     r0,#8
0003c2  f7fffffe          BL       lcd_write_data_16bit
;;;587    		lcd_write_data_16bit(0x54); 
0003c6  2054              MOVS     r0,#0x54
0003c8  f7fffffe          BL       lcd_write_data_16bit
;;;588    		lcd_write_data_16bit(0XA9); 
0003cc  20a9              MOVS     r0,#0xa9
0003ce  f7fffffe          BL       lcd_write_data_16bit
;;;589    		lcd_write_data_16bit(0x43); 
0003d2  2043              MOVS     r0,#0x43
0003d4  f7fffffe          BL       lcd_write_data_16bit
;;;590    		lcd_write_data_16bit(0x0A); 
0003d8  200a              MOVS     r0,#0xa
0003da  f7fffffe          BL       lcd_write_data_16bit
;;;591    		lcd_write_data_16bit(0x0F); 
0003de  200f              MOVS     r0,#0xf
0003e0  f7fffffe          BL       lcd_write_data_16bit
;;;592    		lcd_write_data_16bit(0x00); 
0003e4  2000              MOVS     r0,#0
0003e6  f7fffffe          BL       lcd_write_data_16bit
;;;593    		lcd_write_data_16bit(0x00); 
0003ea  2000              MOVS     r0,#0
0003ec  f7fffffe          BL       lcd_write_data_16bit
;;;594    		lcd_write_data_16bit(0x00); 
0003f0  2000              MOVS     r0,#0
0003f2  f7fffffe          BL       lcd_write_data_16bit
;;;595    		lcd_write_data_16bit(0x00); 		 
0003f6  2000              MOVS     r0,#0
0003f8  f7fffffe          BL       lcd_write_data_16bit
;;;596    		lcd_wr_reg(0XE1);    //Set Gamma 
0003fc  20e1              MOVS     r0,#0xe1
0003fe  e011              B        |L13.1060|
                  |L13.1024|
                          DCD      0x40023830
                  |L13.1028|
                          DCD      0x40020400
                  |L13.1032|
                          DCD      0x40020c00
                  |L13.1036|
                          DCD      0x40021000
                  |L13.1040|
                          DCD      ||.bss||
                  |L13.1044|
000414  204c4344          DCB      " LCD ID:%x\r\n",0
000418  2049443a
00041c  25780d0a
000420  00      
000421  00                DCB      0
000422  00                DCB      0
000423  00                DCB      0
                  |L13.1060|
000424  f7fffffe          BL       lcd_wr_reg
;;;597    		lcd_write_data_16bit(0x00); 
000428  2000              MOVS     r0,#0
00042a  f7fffffe          BL       lcd_write_data_16bit
;;;598    		lcd_write_data_16bit(0x15); 
00042e  2015              MOVS     r0,#0x15
000430  f7fffffe          BL       lcd_write_data_16bit
;;;599    		lcd_write_data_16bit(0x17); 
000434  2017              MOVS     r0,#0x17
000436  f7fffffe          BL       lcd_write_data_16bit
;;;600    		lcd_write_data_16bit(0x07); 
00043a  2007              MOVS     r0,#7
00043c  f7fffffe          BL       lcd_write_data_16bit
;;;601    		lcd_write_data_16bit(0x11); 
000440  2011              MOVS     r0,#0x11
000442  f7fffffe          BL       lcd_write_data_16bit
;;;602    		lcd_write_data_16bit(0x06); 
000446  2006              MOVS     r0,#6
000448  f7fffffe          BL       lcd_write_data_16bit
;;;603    		lcd_write_data_16bit(0x2B); 
00044c  202b              MOVS     r0,#0x2b
00044e  f7fffffe          BL       lcd_write_data_16bit
;;;604    		lcd_write_data_16bit(0x56); 
000452  2056              MOVS     r0,#0x56
000454  f7fffffe          BL       lcd_write_data_16bit
;;;605    		lcd_write_data_16bit(0x3C); 
000458  203c              MOVS     r0,#0x3c
00045a  f7fffffe          BL       lcd_write_data_16bit
;;;606    		lcd_write_data_16bit(0x05); 
00045e  2005              MOVS     r0,#5
000460  f7fffffe          BL       lcd_write_data_16bit
;;;607    		lcd_write_data_16bit(0x10); 
000464  2010              MOVS     r0,#0x10
000466  f7fffffe          BL       lcd_write_data_16bit
;;;608    		lcd_write_data_16bit(0x0F); 
00046a  200f              MOVS     r0,#0xf
00046c  f7fffffe          BL       lcd_write_data_16bit
;;;609    		lcd_write_data_16bit(0x3F); 
000470  203f              MOVS     r0,#0x3f
000472  f7fffffe          BL       lcd_write_data_16bit
;;;610    		lcd_write_data_16bit(0x3F); 
000476  203f              MOVS     r0,#0x3f
000478  f7fffffe          BL       lcd_write_data_16bit
;;;611    		lcd_write_data_16bit(0x0F); 
00047c  200f              MOVS     r0,#0xf
00047e  f7fffffe          BL       lcd_write_data_16bit
;;;612    		lcd_wr_reg(0x2B); 
000482  202b              MOVS     r0,#0x2b
000484  f7fffffe          BL       lcd_wr_reg
;;;613    		lcd_write_data_16bit(0x00);
000488  2000              MOVS     r0,#0
00048a  f7fffffe          BL       lcd_write_data_16bit
;;;614    		lcd_write_data_16bit(0x00);
00048e  2000              MOVS     r0,#0
000490  f7fffffe          BL       lcd_write_data_16bit
;;;615    		lcd_write_data_16bit(0x01);
000494  2001              MOVS     r0,#1
000496  f7fffffe          BL       lcd_write_data_16bit
;;;616    		lcd_write_data_16bit(0x3f);
00049a  203f              MOVS     r0,#0x3f
00049c  f7fffffe          BL       lcd_write_data_16bit
;;;617    		lcd_wr_reg(0x2A); 
0004a0  202a              MOVS     r0,#0x2a
0004a2  f7fffffe          BL       lcd_wr_reg
;;;618    		lcd_write_data_16bit(0x00);
0004a6  2000              MOVS     r0,#0
0004a8  f7fffffe          BL       lcd_write_data_16bit
;;;619    		lcd_write_data_16bit(0x00);
0004ac  2000              MOVS     r0,#0
0004ae  f7fffffe          BL       lcd_write_data_16bit
;;;620    		lcd_write_data_16bit(0x00);
0004b2  2000              MOVS     r0,#0
0004b4  f7fffffe          BL       lcd_write_data_16bit
;;;621    		lcd_write_data_16bit(0xef);	 
0004b8  20ef              MOVS     r0,#0xef
0004ba  f7fffffe          BL       lcd_write_data_16bit
;;;622    		lcd_wr_reg(0x11); //Exit Sleep
0004be  2011              MOVS     r0,#0x11
0004c0  f7fffffe          BL       lcd_wr_reg
;;;623    		delay_ms(120);
0004c4  2078              MOVS     r0,#0x78
0004c6  f7fffffe          BL       delay_ms
;;;624    		lcd_wr_reg(0x29); //display on	
0004ca  2029              MOVS     r0,#0x29
0004cc  f001bf00          B.W      |L13.8912|
                  |L13.1232|
0004d0  8095              STRH     r5,[r2,#4]            ;518
0004d2  e6c9              B        |L13.616|
                  |L13.1236|
;;;625    	}else if(lcd_dev.id==0x5310)
0004d4  42b0              CMP      r0,r6
0004d6  d17c              BNE      |L13.1490|
;;;626    	{ 
;;;627    		lcd_wr_reg(0xED);
0004d8  20ed              MOVS     r0,#0xed
0004da  f7fffffe          BL       lcd_wr_reg
;;;628    		lcd_write_data_16bit(0x01);
0004de  2001              MOVS     r0,#1
0004e0  f7fffffe          BL       lcd_write_data_16bit
;;;629    		lcd_write_data_16bit(0xFE);
0004e4  20fe              MOVS     r0,#0xfe
0004e6  f7fffffe          BL       lcd_write_data_16bit
;;;630    
;;;631    		lcd_wr_reg(0xEE);
0004ea  20ee              MOVS     r0,#0xee
0004ec  f7fffffe          BL       lcd_wr_reg
;;;632    		lcd_write_data_16bit(0xDE);
0004f0  20de              MOVS     r0,#0xde
0004f2  f7fffffe          BL       lcd_write_data_16bit
;;;633    		lcd_write_data_16bit(0x21);
0004f6  2021              MOVS     r0,#0x21
0004f8  f7fffffe          BL       lcd_write_data_16bit
;;;634    
;;;635    		lcd_wr_reg(0xF1);
0004fc  20f1              MOVS     r0,#0xf1
0004fe  f7fffffe          BL       lcd_wr_reg
;;;636    		lcd_write_data_16bit(0x01);
000502  2001              MOVS     r0,#1
000504  f7fffffe          BL       lcd_write_data_16bit
;;;637    		lcd_wr_reg(0xDF);
000508  20df              MOVS     r0,#0xdf
00050a  f7fffffe          BL       lcd_wr_reg
;;;638    		lcd_write_data_16bit(0x10);
00050e  2010              MOVS     r0,#0x10
000510  f7fffffe          BL       lcd_write_data_16bit
;;;639    
;;;640    		//VCOMvoltage//
;;;641    		lcd_wr_reg(0xC4);
000514  20c4              MOVS     r0,#0xc4
000516  f7fffffe          BL       lcd_wr_reg
;;;642    		lcd_write_data_16bit(0x8F);	  //5f
00051a  208f              MOVS     r0,#0x8f
00051c  f7fffffe          BL       lcd_write_data_16bit
;;;643    
;;;644    		lcd_wr_reg(0xC6);
000520  20c6              MOVS     r0,#0xc6
000522  f7fffffe          BL       lcd_wr_reg
;;;645    		lcd_write_data_16bit(0x00);
000526  2000              MOVS     r0,#0
000528  f7fffffe          BL       lcd_write_data_16bit
;;;646    		lcd_write_data_16bit(0xE2);
00052c  20e2              MOVS     r0,#0xe2
00052e  f7fffffe          BL       lcd_write_data_16bit
;;;647    		lcd_write_data_16bit(0xE2);
000532  20e2              MOVS     r0,#0xe2
000534  f7fffffe          BL       lcd_write_data_16bit
;;;648    		lcd_write_data_16bit(0xE2);
000538  20e2              MOVS     r0,#0xe2
00053a  f7fffffe          BL       lcd_write_data_16bit
;;;649    		lcd_wr_reg(0xBF);
00053e  20bf              MOVS     r0,#0xbf
000540  f7fffffe          BL       lcd_wr_reg
;;;650    		lcd_write_data_16bit(0xAA);
000544  20aa              MOVS     r0,#0xaa
000546  f7fffffe          BL       lcd_write_data_16bit
;;;651    
;;;652    		lcd_wr_reg(0xB0);
00054a  20b0              MOVS     r0,#0xb0
00054c  f7fffffe          BL       lcd_wr_reg
;;;653    		lcd_write_data_16bit(0x0D);
000550  200d              MOVS     r0,#0xd
000552  f7fffffe          BL       lcd_write_data_16bit
;;;654    		lcd_write_data_16bit(0x00);
000556  2000              MOVS     r0,#0
000558  f7fffffe          BL       lcd_write_data_16bit
;;;655    		lcd_write_data_16bit(0x0D);
00055c  200d              MOVS     r0,#0xd
00055e  f7fffffe          BL       lcd_write_data_16bit
;;;656    		lcd_write_data_16bit(0x00);
000562  2000              MOVS     r0,#0
000564  f7fffffe          BL       lcd_write_data_16bit
;;;657    		lcd_write_data_16bit(0x11);
000568  2011              MOVS     r0,#0x11
00056a  f7fffffe          BL       lcd_write_data_16bit
;;;658    		lcd_write_data_16bit(0x00);
00056e  2000              MOVS     r0,#0
000570  f7fffffe          BL       lcd_write_data_16bit
;;;659    		lcd_write_data_16bit(0x19);
000574  2019              MOVS     r0,#0x19
000576  f7fffffe          BL       lcd_write_data_16bit
;;;660    		lcd_write_data_16bit(0x00);
00057a  2000              MOVS     r0,#0
00057c  f7fffffe          BL       lcd_write_data_16bit
;;;661    		lcd_write_data_16bit(0x21);
000580  2021              MOVS     r0,#0x21
000582  f7fffffe          BL       lcd_write_data_16bit
;;;662    		lcd_write_data_16bit(0x00);
000586  2000              MOVS     r0,#0
000588  f7fffffe          BL       lcd_write_data_16bit
;;;663    		lcd_write_data_16bit(0x2D);
00058c  202d              MOVS     r0,#0x2d
00058e  f7fffffe          BL       lcd_write_data_16bit
;;;664    		lcd_write_data_16bit(0x00);
000592  2000              MOVS     r0,#0
000594  f7fffffe          BL       lcd_write_data_16bit
;;;665    		lcd_write_data_16bit(0x3D);
000598  203d              MOVS     r0,#0x3d
00059a  f7fffffe          BL       lcd_write_data_16bit
;;;666    		lcd_write_data_16bit(0x00);
00059e  2000              MOVS     r0,#0
0005a0  f7fffffe          BL       lcd_write_data_16bit
;;;667    		lcd_write_data_16bit(0x5D);
0005a4  205d              MOVS     r0,#0x5d
0005a6  f7fffffe          BL       lcd_write_data_16bit
;;;668    		lcd_write_data_16bit(0x00);
0005aa  2000              MOVS     r0,#0
0005ac  f7fffffe          BL       lcd_write_data_16bit
;;;669    		lcd_write_data_16bit(0x5D);
0005b0  205d              MOVS     r0,#0x5d
0005b2  f7fffffe          BL       lcd_write_data_16bit
;;;670    		lcd_write_data_16bit(0x00);
0005b6  2000              MOVS     r0,#0
0005b8  f7fffffe          BL       lcd_write_data_16bit
;;;671    
;;;672    		lcd_wr_reg(0xB1);
0005bc  20b1              MOVS     r0,#0xb1
0005be  f7fffffe          BL       lcd_wr_reg
;;;673    		lcd_write_data_16bit(0x80);
0005c2  2080              MOVS     r0,#0x80
0005c4  f7fffffe          BL       lcd_write_data_16bit
;;;674    		lcd_write_data_16bit(0x00);
0005c8  2000              MOVS     r0,#0
0005ca  f7fffffe          BL       lcd_write_data_16bit
;;;675    		lcd_write_data_16bit(0x8B);
0005ce  208b              MOVS     r0,#0x8b
0005d0  e000              B        |L13.1492|
                  |L13.1490|
0005d2  e3fc              B        |L13.3534|
                  |L13.1492|
0005d4  f7fffffe          BL       lcd_write_data_16bit
;;;676    		lcd_write_data_16bit(0x00);
0005d8  2000              MOVS     r0,#0
0005da  f7fffffe          BL       lcd_write_data_16bit
;;;677    		lcd_write_data_16bit(0x96);
0005de  2096              MOVS     r0,#0x96
0005e0  f7fffffe          BL       lcd_write_data_16bit
;;;678    		lcd_write_data_16bit(0x00);
0005e4  2000              MOVS     r0,#0
0005e6  f7fffffe          BL       lcd_write_data_16bit
;;;679    
;;;680    		lcd_wr_reg(0xB2);
0005ea  20b2              MOVS     r0,#0xb2
0005ec  f7fffffe          BL       lcd_wr_reg
;;;681    		lcd_write_data_16bit(0x00);
0005f0  2000              MOVS     r0,#0
0005f2  f7fffffe          BL       lcd_write_data_16bit
;;;682    		lcd_write_data_16bit(0x00);
0005f6  2000              MOVS     r0,#0
0005f8  f7fffffe          BL       lcd_write_data_16bit
;;;683    		lcd_write_data_16bit(0x02);
0005fc  2002              MOVS     r0,#2
0005fe  f7fffffe          BL       lcd_write_data_16bit
;;;684    		lcd_write_data_16bit(0x00);
000602  2000              MOVS     r0,#0
000604  f7fffffe          BL       lcd_write_data_16bit
;;;685    		lcd_write_data_16bit(0x03);
000608  2003              MOVS     r0,#3
00060a  f7fffffe          BL       lcd_write_data_16bit
;;;686    		lcd_write_data_16bit(0x00);
00060e  2000              MOVS     r0,#0
000610  f7fffffe          BL       lcd_write_data_16bit
;;;687    
;;;688    		lcd_wr_reg(0xB3);
000614  20b3              MOVS     r0,#0xb3
000616  f7fffffe          BL       lcd_wr_reg
;;;689    		lcd_write_data_16bit(0x00);
00061a  2000              MOVS     r0,#0
00061c  f7fffffe          BL       lcd_write_data_16bit
;;;690    		lcd_write_data_16bit(0x00);
000620  2000              MOVS     r0,#0
000622  f7fffffe          BL       lcd_write_data_16bit
;;;691    		lcd_write_data_16bit(0x00);
000626  2000              MOVS     r0,#0
000628  f7fffffe          BL       lcd_write_data_16bit
;;;692    		lcd_write_data_16bit(0x00);
00062c  2000              MOVS     r0,#0
00062e  f7fffffe          BL       lcd_write_data_16bit
;;;693    		lcd_write_data_16bit(0x00);
000632  2000              MOVS     r0,#0
000634  f7fffffe          BL       lcd_write_data_16bit
;;;694    		lcd_write_data_16bit(0x00);
000638  2000              MOVS     r0,#0
00063a  f7fffffe          BL       lcd_write_data_16bit
;;;695    		lcd_write_data_16bit(0x00);
00063e  2000              MOVS     r0,#0
000640  f7fffffe          BL       lcd_write_data_16bit
;;;696    		lcd_write_data_16bit(0x00);
000644  2000              MOVS     r0,#0
000646  f7fffffe          BL       lcd_write_data_16bit
;;;697    		lcd_write_data_16bit(0x00);
00064a  2000              MOVS     r0,#0
00064c  f7fffffe          BL       lcd_write_data_16bit
;;;698    		lcd_write_data_16bit(0x00);
000650  2000              MOVS     r0,#0
000652  f7fffffe          BL       lcd_write_data_16bit
;;;699    		lcd_write_data_16bit(0x00);
000656  2000              MOVS     r0,#0
000658  f7fffffe          BL       lcd_write_data_16bit
;;;700    		lcd_write_data_16bit(0x00);
00065c  2000              MOVS     r0,#0
00065e  f7fffffe          BL       lcd_write_data_16bit
;;;701    		lcd_write_data_16bit(0x00);
000662  2000              MOVS     r0,#0
000664  f7fffffe          BL       lcd_write_data_16bit
;;;702    		lcd_write_data_16bit(0x00);
000668  2000              MOVS     r0,#0
00066a  f7fffffe          BL       lcd_write_data_16bit
;;;703    		lcd_write_data_16bit(0x00);
00066e  2000              MOVS     r0,#0
000670  f7fffffe          BL       lcd_write_data_16bit
;;;704    		lcd_write_data_16bit(0x00);
000674  2000              MOVS     r0,#0
000676  f7fffffe          BL       lcd_write_data_16bit
;;;705    		lcd_write_data_16bit(0x00);
00067a  2000              MOVS     r0,#0
00067c  f7fffffe          BL       lcd_write_data_16bit
;;;706    		lcd_write_data_16bit(0x00);
000680  2000              MOVS     r0,#0
000682  f7fffffe          BL       lcd_write_data_16bit
;;;707    		lcd_write_data_16bit(0x00);
000686  2000              MOVS     r0,#0
000688  f7fffffe          BL       lcd_write_data_16bit
;;;708    		lcd_write_data_16bit(0x00);
00068c  2000              MOVS     r0,#0
00068e  f7fffffe          BL       lcd_write_data_16bit
;;;709    		lcd_write_data_16bit(0x00);
000692  2000              MOVS     r0,#0
000694  f7fffffe          BL       lcd_write_data_16bit
;;;710    		lcd_write_data_16bit(0x00);
000698  2000              MOVS     r0,#0
00069a  f7fffffe          BL       lcd_write_data_16bit
;;;711    		lcd_write_data_16bit(0x00);
00069e  2000              MOVS     r0,#0
0006a0  f7fffffe          BL       lcd_write_data_16bit
;;;712    		lcd_write_data_16bit(0x00);
0006a4  2000              MOVS     r0,#0
0006a6  f7fffffe          BL       lcd_write_data_16bit
;;;713    
;;;714    		lcd_wr_reg(0xB4);
0006aa  20b4              MOVS     r0,#0xb4
0006ac  f7fffffe          BL       lcd_wr_reg
;;;715    		lcd_write_data_16bit(0x8B);
0006b0  208b              MOVS     r0,#0x8b
0006b2  f7fffffe          BL       lcd_write_data_16bit
;;;716    		lcd_write_data_16bit(0x00);
0006b6  2000              MOVS     r0,#0
0006b8  f7fffffe          BL       lcd_write_data_16bit
;;;717    		lcd_write_data_16bit(0x96);
0006bc  2096              MOVS     r0,#0x96
0006be  f7fffffe          BL       lcd_write_data_16bit
;;;718    		lcd_write_data_16bit(0x00);
0006c2  2000              MOVS     r0,#0
0006c4  f7fffffe          BL       lcd_write_data_16bit
;;;719    		lcd_write_data_16bit(0xA1);
0006c8  20a1              MOVS     r0,#0xa1
0006ca  f7fffffe          BL       lcd_write_data_16bit
;;;720    		lcd_write_data_16bit(0x00);
0006ce  2000              MOVS     r0,#0
0006d0  f7fffffe          BL       lcd_write_data_16bit
;;;721    
;;;722    		lcd_wr_reg(0xB5);
0006d4  20b5              MOVS     r0,#0xb5
0006d6  f7fffffe          BL       lcd_wr_reg
;;;723    		lcd_write_data_16bit(0x02);
0006da  2002              MOVS     r0,#2
0006dc  f7fffffe          BL       lcd_write_data_16bit
;;;724    		lcd_write_data_16bit(0x00);
0006e0  2000              MOVS     r0,#0
0006e2  f7fffffe          BL       lcd_write_data_16bit
;;;725    		lcd_write_data_16bit(0x03);
0006e6  2003              MOVS     r0,#3
0006e8  f7fffffe          BL       lcd_write_data_16bit
;;;726    		lcd_write_data_16bit(0x00);
0006ec  2000              MOVS     r0,#0
0006ee  f7fffffe          BL       lcd_write_data_16bit
;;;727    		lcd_write_data_16bit(0x04);
0006f2  2004              MOVS     r0,#4
0006f4  f7fffffe          BL       lcd_write_data_16bit
;;;728    		lcd_write_data_16bit(0x00);
0006f8  2000              MOVS     r0,#0
0006fa  f7fffffe          BL       lcd_write_data_16bit
;;;729    
;;;730    		lcd_wr_reg(0xB6);
0006fe  20b6              MOVS     r0,#0xb6
000700  f7fffffe          BL       lcd_wr_reg
;;;731    		lcd_write_data_16bit(0x00);
000704  2000              MOVS     r0,#0
000706  f7fffffe          BL       lcd_write_data_16bit
;;;732    		lcd_write_data_16bit(0x00);
00070a  2000              MOVS     r0,#0
00070c  f7fffffe          BL       lcd_write_data_16bit
;;;733    
;;;734    		lcd_wr_reg(0xB7);
000710  20b7              MOVS     r0,#0xb7
000712  f7fffffe          BL       lcd_wr_reg
;;;735    		lcd_write_data_16bit(0x00);
000716  2000              MOVS     r0,#0
000718  f7fffffe          BL       lcd_write_data_16bit
;;;736    		lcd_write_data_16bit(0x00);
00071c  2000              MOVS     r0,#0
00071e  f7fffffe          BL       lcd_write_data_16bit
;;;737    		lcd_write_data_16bit(0x3F);
000722  203f              MOVS     r0,#0x3f
000724  f7fffffe          BL       lcd_write_data_16bit
;;;738    		lcd_write_data_16bit(0x00);
000728  2000              MOVS     r0,#0
00072a  f7fffffe          BL       lcd_write_data_16bit
;;;739    		lcd_write_data_16bit(0x5E);
00072e  205e              MOVS     r0,#0x5e
000730  f7fffffe          BL       lcd_write_data_16bit
;;;740    		lcd_write_data_16bit(0x00);
000734  2000              MOVS     r0,#0
000736  f7fffffe          BL       lcd_write_data_16bit
;;;741    		lcd_write_data_16bit(0x64);
00073a  2064              MOVS     r0,#0x64
00073c  f7fffffe          BL       lcd_write_data_16bit
;;;742    		lcd_write_data_16bit(0x00);
000740  2000              MOVS     r0,#0
000742  f7fffffe          BL       lcd_write_data_16bit
;;;743    		lcd_write_data_16bit(0x8C);
000746  208c              MOVS     r0,#0x8c
000748  f7fffffe          BL       lcd_write_data_16bit
;;;744    		lcd_write_data_16bit(0x00);
00074c  2000              MOVS     r0,#0
00074e  f7fffffe          BL       lcd_write_data_16bit
;;;745    		lcd_write_data_16bit(0xAC);
000752  20ac              MOVS     r0,#0xac
000754  f7fffffe          BL       lcd_write_data_16bit
;;;746    		lcd_write_data_16bit(0x00);
000758  2000              MOVS     r0,#0
00075a  f7fffffe          BL       lcd_write_data_16bit
;;;747    		lcd_write_data_16bit(0xDC);
00075e  20dc              MOVS     r0,#0xdc
000760  f7fffffe          BL       lcd_write_data_16bit
;;;748    		lcd_write_data_16bit(0x00);
000764  2000              MOVS     r0,#0
000766  f7fffffe          BL       lcd_write_data_16bit
;;;749    		lcd_write_data_16bit(0x70);
00076a  2070              MOVS     r0,#0x70
00076c  f7fffffe          BL       lcd_write_data_16bit
;;;750    		lcd_write_data_16bit(0x00);
000770  2000              MOVS     r0,#0
000772  f7fffffe          BL       lcd_write_data_16bit
;;;751    		lcd_write_data_16bit(0x90);
000776  2090              MOVS     r0,#0x90
000778  f7fffffe          BL       lcd_write_data_16bit
;;;752    		lcd_write_data_16bit(0x00);
00077c  2000              MOVS     r0,#0
00077e  f7fffffe          BL       lcd_write_data_16bit
;;;753    		lcd_write_data_16bit(0xEB);
000782  20eb              MOVS     r0,#0xeb
000784  f7fffffe          BL       lcd_write_data_16bit
;;;754    		lcd_write_data_16bit(0x00);
000788  2000              MOVS     r0,#0
00078a  f7fffffe          BL       lcd_write_data_16bit
;;;755    		lcd_write_data_16bit(0xDC);
00078e  20dc              MOVS     r0,#0xdc
000790  f7fffffe          BL       lcd_write_data_16bit
;;;756    		lcd_write_data_16bit(0x00);
000794  2000              MOVS     r0,#0
000796  f7fffffe          BL       lcd_write_data_16bit
;;;757    
;;;758    		lcd_wr_reg(0xB8);
00079a  20b8              MOVS     r0,#0xb8
00079c  f7fffffe          BL       lcd_wr_reg
;;;759    		lcd_write_data_16bit(0x00);
0007a0  2000              MOVS     r0,#0
0007a2  f7fffffe          BL       lcd_write_data_16bit
;;;760    		lcd_write_data_16bit(0x00);
0007a6  2000              MOVS     r0,#0
0007a8  f7fffffe          BL       lcd_write_data_16bit
;;;761    		lcd_write_data_16bit(0x00);
0007ac  2000              MOVS     r0,#0
0007ae  f7fffffe          BL       lcd_write_data_16bit
;;;762    		lcd_write_data_16bit(0x00);
0007b2  2000              MOVS     r0,#0
0007b4  f7fffffe          BL       lcd_write_data_16bit
;;;763    		lcd_write_data_16bit(0x00);
0007b8  2000              MOVS     r0,#0
0007ba  f7fffffe          BL       lcd_write_data_16bit
;;;764    		lcd_write_data_16bit(0x00);
0007be  2000              MOVS     r0,#0
0007c0  f7fffffe          BL       lcd_write_data_16bit
;;;765    		lcd_write_data_16bit(0x00);
0007c4  2000              MOVS     r0,#0
0007c6  f7fffffe          BL       lcd_write_data_16bit
;;;766    		lcd_write_data_16bit(0x00);
0007ca  2000              MOVS     r0,#0
0007cc  f7fffffe          BL       lcd_write_data_16bit
;;;767    
;;;768    		lcd_wr_reg(0xBA);
0007d0  20ba              MOVS     r0,#0xba
0007d2  f7fffffe          BL       lcd_wr_reg
;;;769    		lcd_write_data_16bit(0x24);
0007d6  2024              MOVS     r0,#0x24
0007d8  f7fffffe          BL       lcd_write_data_16bit
;;;770    		lcd_write_data_16bit(0x00);
0007dc  2000              MOVS     r0,#0
0007de  f7fffffe          BL       lcd_write_data_16bit
;;;771    		lcd_write_data_16bit(0x00);
0007e2  2000              MOVS     r0,#0
0007e4  f7fffffe          BL       lcd_write_data_16bit
;;;772    		lcd_write_data_16bit(0x00);
0007e8  2000              MOVS     r0,#0
0007ea  f7fffffe          BL       lcd_write_data_16bit
;;;773    
;;;774    		lcd_wr_reg(0xC1);
0007ee  20c1              MOVS     r0,#0xc1
0007f0  f7fffffe          BL       lcd_wr_reg
;;;775    		lcd_write_data_16bit(0x20);
0007f4  2020              MOVS     r0,#0x20
0007f6  f7fffffe          BL       lcd_write_data_16bit
;;;776    		lcd_write_data_16bit(0x00);
0007fa  2000              MOVS     r0,#0
0007fc  f7fffffe          BL       lcd_write_data_16bit
;;;777    		lcd_write_data_16bit(0x54);
000800  2054              MOVS     r0,#0x54
000802  f7fffffe          BL       lcd_write_data_16bit
;;;778    		lcd_write_data_16bit(0x00);
000806  2000              MOVS     r0,#0
000808  f7fffffe          BL       lcd_write_data_16bit
;;;779    		lcd_write_data_16bit(0xFF);
00080c  20ff              MOVS     r0,#0xff
00080e  f7fffffe          BL       lcd_write_data_16bit
;;;780    		lcd_write_data_16bit(0x00);
000812  2000              MOVS     r0,#0
000814  f7fffffe          BL       lcd_write_data_16bit
;;;781    
;;;782    		lcd_wr_reg(0xC2);
000818  20c2              MOVS     r0,#0xc2
00081a  f7fffffe          BL       lcd_wr_reg
;;;783    		lcd_write_data_16bit(0x0A);
00081e  200a              MOVS     r0,#0xa
000820  f7fffffe          BL       lcd_write_data_16bit
;;;784    		lcd_write_data_16bit(0x00);
000824  2000              MOVS     r0,#0
000826  f7fffffe          BL       lcd_write_data_16bit
;;;785    		lcd_write_data_16bit(0x04);
00082a  2004              MOVS     r0,#4
00082c  f7fffffe          BL       lcd_write_data_16bit
;;;786    		lcd_write_data_16bit(0x00);
000830  2000              MOVS     r0,#0
000832  f7fffffe          BL       lcd_write_data_16bit
;;;787    
;;;788    		lcd_wr_reg(0xC3);
000836  20c3              MOVS     r0,#0xc3
000838  f7fffffe          BL       lcd_wr_reg
;;;789    		lcd_write_data_16bit(0x3C);
00083c  203c              MOVS     r0,#0x3c
00083e  f7fffffe          BL       lcd_write_data_16bit
;;;790    		lcd_write_data_16bit(0x00);
000842  2000              MOVS     r0,#0
000844  f7fffffe          BL       lcd_write_data_16bit
;;;791    		lcd_write_data_16bit(0x3A);
000848  203a              MOVS     r0,#0x3a
00084a  f7fffffe          BL       lcd_write_data_16bit
;;;792    		lcd_write_data_16bit(0x00);
00084e  2000              MOVS     r0,#0
000850  f7fffffe          BL       lcd_write_data_16bit
;;;793    		lcd_write_data_16bit(0x39);
000854  2039              MOVS     r0,#0x39
000856  f7fffffe          BL       lcd_write_data_16bit
;;;794    		lcd_write_data_16bit(0x00);
00085a  2000              MOVS     r0,#0
00085c  f7fffffe          BL       lcd_write_data_16bit
;;;795    		lcd_write_data_16bit(0x37);
000860  2037              MOVS     r0,#0x37
000862  f7fffffe          BL       lcd_write_data_16bit
;;;796    		lcd_write_data_16bit(0x00);
000866  2000              MOVS     r0,#0
000868  f7fffffe          BL       lcd_write_data_16bit
;;;797    		lcd_write_data_16bit(0x3C);
00086c  203c              MOVS     r0,#0x3c
00086e  f7fffffe          BL       lcd_write_data_16bit
;;;798    		lcd_write_data_16bit(0x00);
000872  2000              MOVS     r0,#0
000874  f7fffffe          BL       lcd_write_data_16bit
;;;799    		lcd_write_data_16bit(0x36);
000878  2036              MOVS     r0,#0x36
00087a  f7fffffe          BL       lcd_write_data_16bit
;;;800    		lcd_write_data_16bit(0x00);
00087e  2000              MOVS     r0,#0
000880  f7fffffe          BL       lcd_write_data_16bit
;;;801    		lcd_write_data_16bit(0x32);
000884  2032              MOVS     r0,#0x32
000886  f7fffffe          BL       lcd_write_data_16bit
;;;802    		lcd_write_data_16bit(0x00);
00088a  2000              MOVS     r0,#0
00088c  f7fffffe          BL       lcd_write_data_16bit
;;;803    		lcd_write_data_16bit(0x2F);
000890  202f              MOVS     r0,#0x2f
000892  f7fffffe          BL       lcd_write_data_16bit
;;;804    		lcd_write_data_16bit(0x00);
000896  2000              MOVS     r0,#0
000898  f7fffffe          BL       lcd_write_data_16bit
;;;805    		lcd_write_data_16bit(0x2C);
00089c  202c              MOVS     r0,#0x2c
00089e  f7fffffe          BL       lcd_write_data_16bit
;;;806    		lcd_write_data_16bit(0x00);
0008a2  2000              MOVS     r0,#0
0008a4  f7fffffe          BL       lcd_write_data_16bit
;;;807    		lcd_write_data_16bit(0x29);
0008a8  2029              MOVS     r0,#0x29
0008aa  f7fffffe          BL       lcd_write_data_16bit
;;;808    		lcd_write_data_16bit(0x00);
0008ae  2000              MOVS     r0,#0
0008b0  f7fffffe          BL       lcd_write_data_16bit
;;;809    		lcd_write_data_16bit(0x26);
0008b4  2026              MOVS     r0,#0x26
0008b6  f7fffffe          BL       lcd_write_data_16bit
;;;810    		lcd_write_data_16bit(0x00);
0008ba  2000              MOVS     r0,#0
0008bc  f7fffffe          BL       lcd_write_data_16bit
;;;811    		lcd_write_data_16bit(0x24);
0008c0  2024              MOVS     r0,#0x24
0008c2  f7fffffe          BL       lcd_write_data_16bit
;;;812    		lcd_write_data_16bit(0x00);
0008c6  2000              MOVS     r0,#0
0008c8  f7fffffe          BL       lcd_write_data_16bit
;;;813    		lcd_write_data_16bit(0x24);
0008cc  2024              MOVS     r0,#0x24
0008ce  f7fffffe          BL       lcd_write_data_16bit
;;;814    		lcd_write_data_16bit(0x00);
0008d2  2000              MOVS     r0,#0
0008d4  f7fffffe          BL       lcd_write_data_16bit
;;;815    		lcd_write_data_16bit(0x23);
0008d8  2023              MOVS     r0,#0x23
0008da  f7fffffe          BL       lcd_write_data_16bit
;;;816    		lcd_write_data_16bit(0x00);
0008de  2000              MOVS     r0,#0
0008e0  f7fffffe          BL       lcd_write_data_16bit
;;;817    		lcd_write_data_16bit(0x3C);
0008e4  203c              MOVS     r0,#0x3c
0008e6  f7fffffe          BL       lcd_write_data_16bit
;;;818    		lcd_write_data_16bit(0x00);
0008ea  2000              MOVS     r0,#0
0008ec  f7fffffe          BL       lcd_write_data_16bit
;;;819    		lcd_write_data_16bit(0x36);
0008f0  2036              MOVS     r0,#0x36
0008f2  f7fffffe          BL       lcd_write_data_16bit
;;;820    		lcd_write_data_16bit(0x00);
0008f6  2000              MOVS     r0,#0
0008f8  f7fffffe          BL       lcd_write_data_16bit
;;;821    		lcd_write_data_16bit(0x32);
0008fc  2032              MOVS     r0,#0x32
0008fe  f7fffffe          BL       lcd_write_data_16bit
;;;822    		lcd_write_data_16bit(0x00);
000902  2000              MOVS     r0,#0
000904  f7fffffe          BL       lcd_write_data_16bit
;;;823    		lcd_write_data_16bit(0x2F);
000908  202f              MOVS     r0,#0x2f
00090a  f7fffffe          BL       lcd_write_data_16bit
;;;824    		lcd_write_data_16bit(0x00);
00090e  2000              MOVS     r0,#0
000910  f7fffffe          BL       lcd_write_data_16bit
;;;825    		lcd_write_data_16bit(0x2C);
000914  202c              MOVS     r0,#0x2c
000916  f7fffffe          BL       lcd_write_data_16bit
;;;826    		lcd_write_data_16bit(0x00);
00091a  2000              MOVS     r0,#0
00091c  f7fffffe          BL       lcd_write_data_16bit
;;;827    		lcd_write_data_16bit(0x29);
000920  2029              MOVS     r0,#0x29
000922  f7fffffe          BL       lcd_write_data_16bit
;;;828    		lcd_write_data_16bit(0x00);
000926  2000              MOVS     r0,#0
000928  f7fffffe          BL       lcd_write_data_16bit
;;;829    		lcd_write_data_16bit(0x26);
00092c  2026              MOVS     r0,#0x26
00092e  f7fffffe          BL       lcd_write_data_16bit
;;;830    		lcd_write_data_16bit(0x00);
000932  2000              MOVS     r0,#0
000934  f7fffffe          BL       lcd_write_data_16bit
;;;831    		lcd_write_data_16bit(0x24);
000938  2024              MOVS     r0,#0x24
00093a  f7fffffe          BL       lcd_write_data_16bit
;;;832    		lcd_write_data_16bit(0x00);
00093e  2000              MOVS     r0,#0
000940  f7fffffe          BL       lcd_write_data_16bit
;;;833    		lcd_write_data_16bit(0x24);
000944  2024              MOVS     r0,#0x24
000946  f7fffffe          BL       lcd_write_data_16bit
;;;834    		lcd_write_data_16bit(0x00);
00094a  2000              MOVS     r0,#0
00094c  f7fffffe          BL       lcd_write_data_16bit
;;;835    		lcd_write_data_16bit(0x23);
000950  2023              MOVS     r0,#0x23
000952  f7fffffe          BL       lcd_write_data_16bit
;;;836    		lcd_write_data_16bit(0x00);
000956  2000              MOVS     r0,#0
000958  f7fffffe          BL       lcd_write_data_16bit
;;;837    
;;;838    		lcd_wr_reg(0xC4);
00095c  20c4              MOVS     r0,#0xc4
00095e  f7fffffe          BL       lcd_wr_reg
;;;839    		lcd_write_data_16bit(0x62);
000962  2062              MOVS     r0,#0x62
000964  f7fffffe          BL       lcd_write_data_16bit
;;;840    		lcd_write_data_16bit(0x00);
000968  2000              MOVS     r0,#0
00096a  f7fffffe          BL       lcd_write_data_16bit
;;;841    		lcd_write_data_16bit(0x05);
00096e  2005              MOVS     r0,#5
000970  f7fffffe          BL       lcd_write_data_16bit
;;;842    		lcd_write_data_16bit(0x00);
000974  2000              MOVS     r0,#0
000976  f7fffffe          BL       lcd_write_data_16bit
;;;843    		lcd_write_data_16bit(0x84);
00097a  2084              MOVS     r0,#0x84
00097c  f7fffffe          BL       lcd_write_data_16bit
;;;844    		lcd_write_data_16bit(0x00);
000980  2000              MOVS     r0,#0
000982  f7fffffe          BL       lcd_write_data_16bit
;;;845    		lcd_write_data_16bit(0xF0);
000986  20f0              MOVS     r0,#0xf0
000988  f7fffffe          BL       lcd_write_data_16bit
;;;846    		lcd_write_data_16bit(0x00);
00098c  2000              MOVS     r0,#0
00098e  f7fffffe          BL       lcd_write_data_16bit
;;;847    		lcd_write_data_16bit(0x18);
000992  2018              MOVS     r0,#0x18
000994  f7fffffe          BL       lcd_write_data_16bit
;;;848    		lcd_write_data_16bit(0x00);
000998  2000              MOVS     r0,#0
00099a  f7fffffe          BL       lcd_write_data_16bit
;;;849    		lcd_write_data_16bit(0xA4);
00099e  20a4              MOVS     r0,#0xa4
0009a0  f7fffffe          BL       lcd_write_data_16bit
;;;850    		lcd_write_data_16bit(0x00);
0009a4  2000              MOVS     r0,#0
0009a6  f7fffffe          BL       lcd_write_data_16bit
;;;851    		lcd_write_data_16bit(0x18);
0009aa  2018              MOVS     r0,#0x18
0009ac  f7fffffe          BL       lcd_write_data_16bit
;;;852    		lcd_write_data_16bit(0x00);
0009b0  2000              MOVS     r0,#0
0009b2  f7fffffe          BL       lcd_write_data_16bit
;;;853    		lcd_write_data_16bit(0x50);
0009b6  2050              MOVS     r0,#0x50
0009b8  f7fffffe          BL       lcd_write_data_16bit
;;;854    		lcd_write_data_16bit(0x00);
0009bc  2000              MOVS     r0,#0
0009be  f7fffffe          BL       lcd_write_data_16bit
;;;855    		lcd_write_data_16bit(0x0C);
0009c2  200c              MOVS     r0,#0xc
0009c4  f7fffffe          BL       lcd_write_data_16bit
;;;856    		lcd_write_data_16bit(0x00);
0009c8  2000              MOVS     r0,#0
0009ca  f7fffffe          BL       lcd_write_data_16bit
;;;857    		lcd_write_data_16bit(0x17);
0009ce  2017              MOVS     r0,#0x17
0009d0  f7fffffe          BL       lcd_write_data_16bit
;;;858    		lcd_write_data_16bit(0x00);
0009d4  2000              MOVS     r0,#0
0009d6  f7fffffe          BL       lcd_write_data_16bit
;;;859    		lcd_write_data_16bit(0x95);
0009da  2095              MOVS     r0,#0x95
0009dc  f7fffffe          BL       lcd_write_data_16bit
;;;860    		lcd_write_data_16bit(0x00);
0009e0  2000              MOVS     r0,#0
0009e2  f7fffffe          BL       lcd_write_data_16bit
;;;861    		lcd_write_data_16bit(0xF3);
0009e6  20f3              MOVS     r0,#0xf3
0009e8  f7fffffe          BL       lcd_write_data_16bit
;;;862    		lcd_write_data_16bit(0x00);
0009ec  2000              MOVS     r0,#0
0009ee  f7fffffe          BL       lcd_write_data_16bit
;;;863    		lcd_write_data_16bit(0xE6);
0009f2  20e6              MOVS     r0,#0xe6
0009f4  f7fffffe          BL       lcd_write_data_16bit
;;;864    		lcd_write_data_16bit(0x00);
0009f8  2000              MOVS     r0,#0
0009fa  f7fffffe          BL       lcd_write_data_16bit
;;;865    
;;;866    		lcd_wr_reg(0xC5);
0009fe  20c5              MOVS     r0,#0xc5
000a00  f7fffffe          BL       lcd_wr_reg
;;;867    		lcd_write_data_16bit(0x32);
000a04  2032              MOVS     r0,#0x32
000a06  f7fffffe          BL       lcd_write_data_16bit
;;;868    		lcd_write_data_16bit(0x00);
000a0a  2000              MOVS     r0,#0
000a0c  f7fffffe          BL       lcd_write_data_16bit
;;;869    		lcd_write_data_16bit(0x44);
000a10  2044              MOVS     r0,#0x44
000a12  f7fffffe          BL       lcd_write_data_16bit
;;;870    		lcd_write_data_16bit(0x00);
000a16  2000              MOVS     r0,#0
000a18  f7fffffe          BL       lcd_write_data_16bit
;;;871    		lcd_write_data_16bit(0x65);
000a1c  2065              MOVS     r0,#0x65
000a1e  f7fffffe          BL       lcd_write_data_16bit
;;;872    		lcd_write_data_16bit(0x00);
000a22  2000              MOVS     r0,#0
000a24  f7fffffe          BL       lcd_write_data_16bit
;;;873    		lcd_write_data_16bit(0x76);
000a28  2076              MOVS     r0,#0x76
000a2a  f7fffffe          BL       lcd_write_data_16bit
;;;874    		lcd_write_data_16bit(0x00);
000a2e  2000              MOVS     r0,#0
000a30  f7fffffe          BL       lcd_write_data_16bit
;;;875    		lcd_write_data_16bit(0x88);
000a34  2088              MOVS     r0,#0x88
000a36  f7fffffe          BL       lcd_write_data_16bit
;;;876    		lcd_write_data_16bit(0x00);
000a3a  2000              MOVS     r0,#0
000a3c  f7fffffe          BL       lcd_write_data_16bit
;;;877    
;;;878    		lcd_wr_reg(0xC6);
000a40  20c6              MOVS     r0,#0xc6
000a42  f7fffffe          BL       lcd_wr_reg
;;;879    		lcd_write_data_16bit(0x20);
000a46  2020              MOVS     r0,#0x20
000a48  f7fffffe          BL       lcd_write_data_16bit
;;;880    		lcd_write_data_16bit(0x00);
000a4c  2000              MOVS     r0,#0
000a4e  f7fffffe          BL       lcd_write_data_16bit
;;;881    		lcd_write_data_16bit(0x17);
000a52  2017              MOVS     r0,#0x17
000a54  f7fffffe          BL       lcd_write_data_16bit
;;;882    		lcd_write_data_16bit(0x00);
000a58  2000              MOVS     r0,#0
000a5a  f7fffffe          BL       lcd_write_data_16bit
;;;883    		lcd_write_data_16bit(0x01);
000a5e  2001              MOVS     r0,#1
000a60  f7fffffe          BL       lcd_write_data_16bit
;;;884    		lcd_write_data_16bit(0x00);
000a64  2000              MOVS     r0,#0
000a66  f7fffffe          BL       lcd_write_data_16bit
;;;885    
;;;886    		lcd_wr_reg(0xC7);
000a6a  20c7              MOVS     r0,#0xc7
000a6c  f7fffffe          BL       lcd_wr_reg
;;;887    		lcd_write_data_16bit(0x00);
000a70  2000              MOVS     r0,#0
000a72  f7fffffe          BL       lcd_write_data_16bit
;;;888    		lcd_write_data_16bit(0x00);
000a76  2000              MOVS     r0,#0
000a78  f7fffffe          BL       lcd_write_data_16bit
;;;889    		lcd_write_data_16bit(0x00);
000a7c  2000              MOVS     r0,#0
000a7e  f7fffffe          BL       lcd_write_data_16bit
;;;890    		lcd_write_data_16bit(0x00);
000a82  2000              MOVS     r0,#0
000a84  f7fffffe          BL       lcd_write_data_16bit
;;;891    
;;;892    		lcd_wr_reg(0xC8);
000a88  20c8              MOVS     r0,#0xc8
000a8a  f7fffffe          BL       lcd_wr_reg
;;;893    		lcd_write_data_16bit(0x00);
000a8e  2000              MOVS     r0,#0
000a90  f7fffffe          BL       lcd_write_data_16bit
;;;894    		lcd_write_data_16bit(0x00);
000a94  2000              MOVS     r0,#0
000a96  f7fffffe          BL       lcd_write_data_16bit
;;;895    		lcd_write_data_16bit(0x00);
000a9a  2000              MOVS     r0,#0
000a9c  f7fffffe          BL       lcd_write_data_16bit
;;;896    		lcd_write_data_16bit(0x00);
000aa0  2000              MOVS     r0,#0
000aa2  f7fffffe          BL       lcd_write_data_16bit
;;;897    
;;;898    		lcd_wr_reg(0xC9);
000aa6  20c9              MOVS     r0,#0xc9
000aa8  f7fffffe          BL       lcd_wr_reg
;;;899    		lcd_write_data_16bit(0x00);
000aac  2000              MOVS     r0,#0
000aae  f7fffffe          BL       lcd_write_data_16bit
;;;900    		lcd_write_data_16bit(0x00);
000ab2  2000              MOVS     r0,#0
000ab4  f7fffffe          BL       lcd_write_data_16bit
;;;901    		lcd_write_data_16bit(0x00);
000ab8  2000              MOVS     r0,#0
000aba  f7fffffe          BL       lcd_write_data_16bit
;;;902    		lcd_write_data_16bit(0x00);
000abe  2000              MOVS     r0,#0
000ac0  f7fffffe          BL       lcd_write_data_16bit
;;;903    		lcd_write_data_16bit(0x00);
000ac4  2000              MOVS     r0,#0
000ac6  f7fffffe          BL       lcd_write_data_16bit
;;;904    		lcd_write_data_16bit(0x00);
000aca  2000              MOVS     r0,#0
000acc  f7fffffe          BL       lcd_write_data_16bit
;;;905    		lcd_write_data_16bit(0x00);
000ad0  2000              MOVS     r0,#0
000ad2  f7fffffe          BL       lcd_write_data_16bit
;;;906    		lcd_write_data_16bit(0x00);
000ad6  2000              MOVS     r0,#0
000ad8  f7fffffe          BL       lcd_write_data_16bit
;;;907    		lcd_write_data_16bit(0x00);
000adc  2000              MOVS     r0,#0
000ade  f7fffffe          BL       lcd_write_data_16bit
;;;908    		lcd_write_data_16bit(0x00);
000ae2  2000              MOVS     r0,#0
000ae4  f7fffffe          BL       lcd_write_data_16bit
;;;909    		lcd_write_data_16bit(0x00);
000ae8  2000              MOVS     r0,#0
000aea  f7fffffe          BL       lcd_write_data_16bit
;;;910    		lcd_write_data_16bit(0x00);
000aee  2000              MOVS     r0,#0
000af0  f7fffffe          BL       lcd_write_data_16bit
;;;911    		lcd_write_data_16bit(0x00);
000af4  2000              MOVS     r0,#0
000af6  f7fffffe          BL       lcd_write_data_16bit
;;;912    		lcd_write_data_16bit(0x00);
000afa  2000              MOVS     r0,#0
000afc  f7fffffe          BL       lcd_write_data_16bit
;;;913    		lcd_write_data_16bit(0x00);
000b00  2000              MOVS     r0,#0
000b02  f7fffffe          BL       lcd_write_data_16bit
;;;914    		lcd_write_data_16bit(0x00);
000b06  2000              MOVS     r0,#0
000b08  f7fffffe          BL       lcd_write_data_16bit
;;;915    
;;;916    		lcd_wr_reg(0xE0);
000b0c  20e0              MOVS     r0,#0xe0
000b0e  f7fffffe          BL       lcd_wr_reg
;;;917    		lcd_write_data_16bit(0x16);
000b12  2016              MOVS     r0,#0x16
000b14  f7fffffe          BL       lcd_write_data_16bit
;;;918    		lcd_write_data_16bit(0x00);
000b18  2000              MOVS     r0,#0
000b1a  f7fffffe          BL       lcd_write_data_16bit
;;;919    		lcd_write_data_16bit(0x1C);
000b1e  201c              MOVS     r0,#0x1c
000b20  f7fffffe          BL       lcd_write_data_16bit
;;;920    		lcd_write_data_16bit(0x00);
000b24  2000              MOVS     r0,#0
000b26  f7fffffe          BL       lcd_write_data_16bit
;;;921    		lcd_write_data_16bit(0x21);
000b2a  2021              MOVS     r0,#0x21
000b2c  f7fffffe          BL       lcd_write_data_16bit
;;;922    		lcd_write_data_16bit(0x00);
000b30  2000              MOVS     r0,#0
000b32  f7fffffe          BL       lcd_write_data_16bit
;;;923    		lcd_write_data_16bit(0x36);
000b36  2036              MOVS     r0,#0x36
000b38  f7fffffe          BL       lcd_write_data_16bit
;;;924    		lcd_write_data_16bit(0x00);
000b3c  2000              MOVS     r0,#0
000b3e  f7fffffe          BL       lcd_write_data_16bit
;;;925    		lcd_write_data_16bit(0x46);
000b42  2046              MOVS     r0,#0x46
000b44  f7fffffe          BL       lcd_write_data_16bit
;;;926    		lcd_write_data_16bit(0x00);
000b48  2000              MOVS     r0,#0
000b4a  f7fffffe          BL       lcd_write_data_16bit
;;;927    		lcd_write_data_16bit(0x52);
000b4e  2052              MOVS     r0,#0x52
000b50  f7fffffe          BL       lcd_write_data_16bit
;;;928    		lcd_write_data_16bit(0x00);
000b54  2000              MOVS     r0,#0
000b56  f7fffffe          BL       lcd_write_data_16bit
;;;929    		lcd_write_data_16bit(0x64);
000b5a  2064              MOVS     r0,#0x64
000b5c  f7fffffe          BL       lcd_write_data_16bit
;;;930    		lcd_write_data_16bit(0x00);
000b60  2000              MOVS     r0,#0
000b62  f7fffffe          BL       lcd_write_data_16bit
;;;931    		lcd_write_data_16bit(0x7A);
000b66  207a              MOVS     r0,#0x7a
000b68  f7fffffe          BL       lcd_write_data_16bit
;;;932    		lcd_write_data_16bit(0x00);
000b6c  2000              MOVS     r0,#0
000b6e  f7fffffe          BL       lcd_write_data_16bit
;;;933    		lcd_write_data_16bit(0x8B);
000b72  208b              MOVS     r0,#0x8b
000b74  f7fffffe          BL       lcd_write_data_16bit
;;;934    		lcd_write_data_16bit(0x00);
000b78  2000              MOVS     r0,#0
000b7a  f7fffffe          BL       lcd_write_data_16bit
;;;935    		lcd_write_data_16bit(0x99);
000b7e  2099              MOVS     r0,#0x99
000b80  f7fffffe          BL       lcd_write_data_16bit
;;;936    		lcd_write_data_16bit(0x00);
000b84  2000              MOVS     r0,#0
000b86  f7fffffe          BL       lcd_write_data_16bit
;;;937    		lcd_write_data_16bit(0xA8);
000b8a  20a8              MOVS     r0,#0xa8
000b8c  f7fffffe          BL       lcd_write_data_16bit
;;;938    		lcd_write_data_16bit(0x00);
000b90  2000              MOVS     r0,#0
000b92  f7fffffe          BL       lcd_write_data_16bit
;;;939    		lcd_write_data_16bit(0xB9);
000b96  20b9              MOVS     r0,#0xb9
000b98  f7fffffe          BL       lcd_write_data_16bit
;;;940    		lcd_write_data_16bit(0x00);
000b9c  2000              MOVS     r0,#0
000b9e  f7fffffe          BL       lcd_write_data_16bit
;;;941    		lcd_write_data_16bit(0xC4);
000ba2  20c4              MOVS     r0,#0xc4
000ba4  f7fffffe          BL       lcd_write_data_16bit
;;;942    		lcd_write_data_16bit(0x00);
000ba8  2000              MOVS     r0,#0
000baa  f7fffffe          BL       lcd_write_data_16bit
;;;943    		lcd_write_data_16bit(0xCA);
000bae  20ca              MOVS     r0,#0xca
000bb0  f7fffffe          BL       lcd_write_data_16bit
;;;944    		lcd_write_data_16bit(0x00);
000bb4  2000              MOVS     r0,#0
000bb6  f7fffffe          BL       lcd_write_data_16bit
;;;945    		lcd_write_data_16bit(0xD2);
000bba  20d2              MOVS     r0,#0xd2
000bbc  f7fffffe          BL       lcd_write_data_16bit
;;;946    		lcd_write_data_16bit(0x00);
000bc0  2000              MOVS     r0,#0
000bc2  f7fffffe          BL       lcd_write_data_16bit
;;;947    		lcd_write_data_16bit(0xD9);
000bc6  20d9              MOVS     r0,#0xd9
000bc8  f7fffffe          BL       lcd_write_data_16bit
;;;948    		lcd_write_data_16bit(0x00);
000bcc  2000              MOVS     r0,#0
000bce  f7fffffe          BL       lcd_write_data_16bit
;;;949    		lcd_write_data_16bit(0xE0);
000bd2  20e0              MOVS     r0,#0xe0
000bd4  f7fffffe          BL       lcd_write_data_16bit
;;;950    		lcd_write_data_16bit(0x00);
000bd8  2000              MOVS     r0,#0
000bda  f7fffffe          BL       lcd_write_data_16bit
;;;951    		lcd_write_data_16bit(0xF3);
000bde  20f3              MOVS     r0,#0xf3
000be0  f7fffffe          BL       lcd_write_data_16bit
;;;952    		lcd_write_data_16bit(0x00);
000be4  2000              MOVS     r0,#0
000be6  f7fffffe          BL       lcd_write_data_16bit
;;;953    
;;;954    		lcd_wr_reg(0xE1);
000bea  20e1              MOVS     r0,#0xe1
000bec  f7fffffe          BL       lcd_wr_reg
;;;955    		lcd_write_data_16bit(0x16);
000bf0  2016              MOVS     r0,#0x16
000bf2  f7fffffe          BL       lcd_write_data_16bit
;;;956    		lcd_write_data_16bit(0x00);
000bf6  2000              MOVS     r0,#0
000bf8  f7fffffe          BL       lcd_write_data_16bit
;;;957    		lcd_write_data_16bit(0x1C);
000bfc  201c              MOVS     r0,#0x1c
000bfe  f7fffffe          BL       lcd_write_data_16bit
;;;958    		lcd_write_data_16bit(0x00);
000c02  2000              MOVS     r0,#0
000c04  f7fffffe          BL       lcd_write_data_16bit
;;;959    		lcd_write_data_16bit(0x22);
000c08  2022              MOVS     r0,#0x22
000c0a  f7fffffe          BL       lcd_write_data_16bit
;;;960    		lcd_write_data_16bit(0x00);
000c0e  2000              MOVS     r0,#0
000c10  f7fffffe          BL       lcd_write_data_16bit
;;;961    		lcd_write_data_16bit(0x36);
000c14  2036              MOVS     r0,#0x36
000c16  f7fffffe          BL       lcd_write_data_16bit
;;;962    		lcd_write_data_16bit(0x00);
000c1a  2000              MOVS     r0,#0
000c1c  f7fffffe          BL       lcd_write_data_16bit
;;;963    		lcd_write_data_16bit(0x45);
000c20  2045              MOVS     r0,#0x45
000c22  f7fffffe          BL       lcd_write_data_16bit
;;;964    		lcd_write_data_16bit(0x00);
000c26  2000              MOVS     r0,#0
000c28  f7fffffe          BL       lcd_write_data_16bit
;;;965    		lcd_write_data_16bit(0x52);
000c2c  2052              MOVS     r0,#0x52
000c2e  f7fffffe          BL       lcd_write_data_16bit
;;;966    		lcd_write_data_16bit(0x00);
000c32  2000              MOVS     r0,#0
000c34  f7fffffe          BL       lcd_write_data_16bit
;;;967    		lcd_write_data_16bit(0x64);
000c38  2064              MOVS     r0,#0x64
000c3a  f7fffffe          BL       lcd_write_data_16bit
;;;968    		lcd_write_data_16bit(0x00);
000c3e  2000              MOVS     r0,#0
000c40  f7fffffe          BL       lcd_write_data_16bit
;;;969    		lcd_write_data_16bit(0x7A);
000c44  207a              MOVS     r0,#0x7a
000c46  f7fffffe          BL       lcd_write_data_16bit
;;;970    		lcd_write_data_16bit(0x00);
000c4a  2000              MOVS     r0,#0
000c4c  f7fffffe          BL       lcd_write_data_16bit
;;;971    		lcd_write_data_16bit(0x8B);
000c50  208b              MOVS     r0,#0x8b
000c52  f7fffffe          BL       lcd_write_data_16bit
;;;972    		lcd_write_data_16bit(0x00);
000c56  2000              MOVS     r0,#0
000c58  f7fffffe          BL       lcd_write_data_16bit
;;;973    		lcd_write_data_16bit(0x99);
000c5c  2099              MOVS     r0,#0x99
000c5e  f7fffffe          BL       lcd_write_data_16bit
;;;974    		lcd_write_data_16bit(0x00);
000c62  2000              MOVS     r0,#0
000c64  f7fffffe          BL       lcd_write_data_16bit
;;;975    		lcd_write_data_16bit(0xA8);
000c68  20a8              MOVS     r0,#0xa8
000c6a  f7fffffe          BL       lcd_write_data_16bit
;;;976    		lcd_write_data_16bit(0x00);
000c6e  2000              MOVS     r0,#0
000c70  f7fffffe          BL       lcd_write_data_16bit
;;;977    		lcd_write_data_16bit(0xB9);
000c74  20b9              MOVS     r0,#0xb9
000c76  f7fffffe          BL       lcd_write_data_16bit
;;;978    		lcd_write_data_16bit(0x00);
000c7a  2000              MOVS     r0,#0
000c7c  f7fffffe          BL       lcd_write_data_16bit
;;;979    		lcd_write_data_16bit(0xC4);
000c80  20c4              MOVS     r0,#0xc4
000c82  f7fffffe          BL       lcd_write_data_16bit
;;;980    		lcd_write_data_16bit(0x00);
000c86  2000              MOVS     r0,#0
000c88  f7fffffe          BL       lcd_write_data_16bit
;;;981    		lcd_write_data_16bit(0xCA);
000c8c  20ca              MOVS     r0,#0xca
000c8e  f7fffffe          BL       lcd_write_data_16bit
;;;982    		lcd_write_data_16bit(0x00);
000c92  2000              MOVS     r0,#0
000c94  f7fffffe          BL       lcd_write_data_16bit
;;;983    		lcd_write_data_16bit(0xD2);
000c98  20d2              MOVS     r0,#0xd2
000c9a  f7fffffe          BL       lcd_write_data_16bit
;;;984    		lcd_write_data_16bit(0x00);
000c9e  2000              MOVS     r0,#0
000ca0  f7fffffe          BL       lcd_write_data_16bit
;;;985    		lcd_write_data_16bit(0xD8);
000ca4  20d8              MOVS     r0,#0xd8
000ca6  f7fffffe          BL       lcd_write_data_16bit
;;;986    		lcd_write_data_16bit(0x00);
000caa  2000              MOVS     r0,#0
000cac  f7fffffe          BL       lcd_write_data_16bit
;;;987    		lcd_write_data_16bit(0xE0);
000cb0  20e0              MOVS     r0,#0xe0
000cb2  f7fffffe          BL       lcd_write_data_16bit
;;;988    		lcd_write_data_16bit(0x00);
000cb6  2000              MOVS     r0,#0
000cb8  f7fffffe          BL       lcd_write_data_16bit
;;;989    		lcd_write_data_16bit(0xF3);
000cbc  20f3              MOVS     r0,#0xf3
000cbe  f7fffffe          BL       lcd_write_data_16bit
;;;990    		lcd_write_data_16bit(0x00);
000cc2  2000              MOVS     r0,#0
000cc4  f7fffffe          BL       lcd_write_data_16bit
;;;991    
;;;992    		lcd_wr_reg(0xE2);
000cc8  20e2              MOVS     r0,#0xe2
000cca  f7fffffe          BL       lcd_wr_reg
;;;993    		lcd_write_data_16bit(0x05);
000cce  2005              MOVS     r0,#5
000cd0  f7fffffe          BL       lcd_write_data_16bit
;;;994    		lcd_write_data_16bit(0x00);
000cd4  2000              MOVS     r0,#0
000cd6  f7fffffe          BL       lcd_write_data_16bit
;;;995    		lcd_write_data_16bit(0x0B);
000cda  200b              MOVS     r0,#0xb
000cdc  f7fffffe          BL       lcd_write_data_16bit
;;;996    		lcd_write_data_16bit(0x00);
000ce0  2000              MOVS     r0,#0
000ce2  f7fffffe          BL       lcd_write_data_16bit
;;;997    		lcd_write_data_16bit(0x1B);
000ce6  201b              MOVS     r0,#0x1b
000ce8  f7fffffe          BL       lcd_write_data_16bit
;;;998    		lcd_write_data_16bit(0x00);
000cec  2000              MOVS     r0,#0
000cee  f7fffffe          BL       lcd_write_data_16bit
;;;999    		lcd_write_data_16bit(0x34);
000cf2  2034              MOVS     r0,#0x34
000cf4  f7fffffe          BL       lcd_write_data_16bit
;;;1000   		lcd_write_data_16bit(0x00);
000cf8  2000              MOVS     r0,#0
000cfa  f7fffffe          BL       lcd_write_data_16bit
;;;1001   		lcd_write_data_16bit(0x44);
000cfe  2044              MOVS     r0,#0x44
000d00  f7fffffe          BL       lcd_write_data_16bit
;;;1002   		lcd_write_data_16bit(0x00);
000d04  2000              MOVS     r0,#0
000d06  f7fffffe          BL       lcd_write_data_16bit
;;;1003   		lcd_write_data_16bit(0x4F);
000d0a  204f              MOVS     r0,#0x4f
000d0c  f7fffffe          BL       lcd_write_data_16bit
;;;1004   		lcd_write_data_16bit(0x00);
000d10  2000              MOVS     r0,#0
000d12  f7fffffe          BL       lcd_write_data_16bit
;;;1005   		lcd_write_data_16bit(0x61);
000d16  2061              MOVS     r0,#0x61
000d18  f7fffffe          BL       lcd_write_data_16bit
;;;1006   		lcd_write_data_16bit(0x00);
000d1c  2000              MOVS     r0,#0
000d1e  f7fffffe          BL       lcd_write_data_16bit
;;;1007   		lcd_write_data_16bit(0x79);
000d22  2079              MOVS     r0,#0x79
000d24  f7fffffe          BL       lcd_write_data_16bit
;;;1008   		lcd_write_data_16bit(0x00);
000d28  2000              MOVS     r0,#0
000d2a  f7fffffe          BL       lcd_write_data_16bit
;;;1009   		lcd_write_data_16bit(0x88);
000d2e  2088              MOVS     r0,#0x88
000d30  f7fffffe          BL       lcd_write_data_16bit
;;;1010   		lcd_write_data_16bit(0x00);
000d34  2000              MOVS     r0,#0
000d36  f7fffffe          BL       lcd_write_data_16bit
;;;1011   		lcd_write_data_16bit(0x97);
000d3a  2097              MOVS     r0,#0x97
000d3c  f7fffffe          BL       lcd_write_data_16bit
;;;1012   		lcd_write_data_16bit(0x00);
000d40  2000              MOVS     r0,#0
000d42  f7fffffe          BL       lcd_write_data_16bit
;;;1013   		lcd_write_data_16bit(0xA6);
000d46  20a6              MOVS     r0,#0xa6
000d48  f7fffffe          BL       lcd_write_data_16bit
;;;1014   		lcd_write_data_16bit(0x00);
000d4c  2000              MOVS     r0,#0
000d4e  f7fffffe          BL       lcd_write_data_16bit
;;;1015   		lcd_write_data_16bit(0xB7);
000d52  20b7              MOVS     r0,#0xb7
000d54  f7fffffe          BL       lcd_write_data_16bit
;;;1016   		lcd_write_data_16bit(0x00);
000d58  2000              MOVS     r0,#0
000d5a  f7fffffe          BL       lcd_write_data_16bit
;;;1017   		lcd_write_data_16bit(0xC2);
000d5e  20c2              MOVS     r0,#0xc2
000d60  f7fffffe          BL       lcd_write_data_16bit
;;;1018   		lcd_write_data_16bit(0x00);
000d64  2000              MOVS     r0,#0
000d66  f7fffffe          BL       lcd_write_data_16bit
;;;1019   		lcd_write_data_16bit(0xC7);
000d6a  20c7              MOVS     r0,#0xc7
000d6c  f7fffffe          BL       lcd_write_data_16bit
;;;1020   		lcd_write_data_16bit(0x00);
000d70  2000              MOVS     r0,#0
000d72  f7fffffe          BL       lcd_write_data_16bit
;;;1021   		lcd_write_data_16bit(0xD1);
000d76  20d1              MOVS     r0,#0xd1
000d78  f7fffffe          BL       lcd_write_data_16bit
;;;1022   		lcd_write_data_16bit(0x00);
000d7c  2000              MOVS     r0,#0
000d7e  f7fffffe          BL       lcd_write_data_16bit
;;;1023   		lcd_write_data_16bit(0xD6);
000d82  20d6              MOVS     r0,#0xd6
000d84  f7fffffe          BL       lcd_write_data_16bit
;;;1024   		lcd_write_data_16bit(0x00);
000d88  2000              MOVS     r0,#0
000d8a  f7fffffe          BL       lcd_write_data_16bit
;;;1025   		lcd_write_data_16bit(0xDD);
000d8e  20dd              MOVS     r0,#0xdd
000d90  f7fffffe          BL       lcd_write_data_16bit
;;;1026   		lcd_write_data_16bit(0x00);
000d94  2000              MOVS     r0,#0
000d96  f7fffffe          BL       lcd_write_data_16bit
;;;1027   		lcd_write_data_16bit(0xF3);
000d9a  20f3              MOVS     r0,#0xf3
000d9c  f7fffffe          BL       lcd_write_data_16bit
;;;1028   		lcd_write_data_16bit(0x00);
000da0  2000              MOVS     r0,#0
000da2  f7fffffe          BL       lcd_write_data_16bit
;;;1029   		lcd_wr_reg(0xE3);
000da6  20e3              MOVS     r0,#0xe3
000da8  f7fffffe          BL       lcd_wr_reg
;;;1030   		lcd_write_data_16bit(0x05);
000dac  2005              MOVS     r0,#5
000dae  f7fffffe          BL       lcd_write_data_16bit
;;;1031   		lcd_write_data_16bit(0x00);
000db2  2000              MOVS     r0,#0
000db4  f7fffffe          BL       lcd_write_data_16bit
;;;1032   		lcd_write_data_16bit(0xA);
000db8  200a              MOVS     r0,#0xa
000dba  f7fffffe          BL       lcd_write_data_16bit
;;;1033   		lcd_write_data_16bit(0x00);
000dbe  2000              MOVS     r0,#0
000dc0  f7fffffe          BL       lcd_write_data_16bit
;;;1034   		lcd_write_data_16bit(0x1C);
000dc4  201c              MOVS     r0,#0x1c
000dc6  f7fffffe          BL       lcd_write_data_16bit
;;;1035   		lcd_write_data_16bit(0x00);
000dca  2000              MOVS     r0,#0
000dcc  e000              B        |L13.3536|
                  |L13.3534|
000dce  e2fd              B        |L13.5068|
                  |L13.3536|
000dd0  f7fffffe          BL       lcd_write_data_16bit
;;;1036   		lcd_write_data_16bit(0x33);
000dd4  2033              MOVS     r0,#0x33
000dd6  f7fffffe          BL       lcd_write_data_16bit
;;;1037   		lcd_write_data_16bit(0x00);
000dda  2000              MOVS     r0,#0
000ddc  f7fffffe          BL       lcd_write_data_16bit
;;;1038   		lcd_write_data_16bit(0x44);
000de0  2044              MOVS     r0,#0x44
000de2  f7fffffe          BL       lcd_write_data_16bit
;;;1039   		lcd_write_data_16bit(0x00);
000de6  2000              MOVS     r0,#0
000de8  f7fffffe          BL       lcd_write_data_16bit
;;;1040   		lcd_write_data_16bit(0x50);
000dec  2050              MOVS     r0,#0x50
000dee  f7fffffe          BL       lcd_write_data_16bit
;;;1041   		lcd_write_data_16bit(0x00);
000df2  2000              MOVS     r0,#0
000df4  f7fffffe          BL       lcd_write_data_16bit
;;;1042   		lcd_write_data_16bit(0x62);
000df8  2062              MOVS     r0,#0x62
000dfa  f7fffffe          BL       lcd_write_data_16bit
;;;1043   		lcd_write_data_16bit(0x00);
000dfe  2000              MOVS     r0,#0
000e00  f7fffffe          BL       lcd_write_data_16bit
;;;1044   		lcd_write_data_16bit(0x78);
000e04  2078              MOVS     r0,#0x78
000e06  f7fffffe          BL       lcd_write_data_16bit
;;;1045   		lcd_write_data_16bit(0x00);
000e0a  2000              MOVS     r0,#0
000e0c  f7fffffe          BL       lcd_write_data_16bit
;;;1046   		lcd_write_data_16bit(0x88);
000e10  2088              MOVS     r0,#0x88
000e12  f7fffffe          BL       lcd_write_data_16bit
;;;1047   		lcd_write_data_16bit(0x00);
000e16  2000              MOVS     r0,#0
000e18  f7fffffe          BL       lcd_write_data_16bit
;;;1048   		lcd_write_data_16bit(0x97);
000e1c  2097              MOVS     r0,#0x97
000e1e  f7fffffe          BL       lcd_write_data_16bit
;;;1049   		lcd_write_data_16bit(0x00);
000e22  2000              MOVS     r0,#0
000e24  f7fffffe          BL       lcd_write_data_16bit
;;;1050   		lcd_write_data_16bit(0xA6);
000e28  20a6              MOVS     r0,#0xa6
000e2a  f7fffffe          BL       lcd_write_data_16bit
;;;1051   		lcd_write_data_16bit(0x00);
000e2e  2000              MOVS     r0,#0
000e30  f7fffffe          BL       lcd_write_data_16bit
;;;1052   		lcd_write_data_16bit(0xB7);
000e34  20b7              MOVS     r0,#0xb7
000e36  f7fffffe          BL       lcd_write_data_16bit
;;;1053   		lcd_write_data_16bit(0x00);
000e3a  2000              MOVS     r0,#0
000e3c  f7fffffe          BL       lcd_write_data_16bit
;;;1054   		lcd_write_data_16bit(0xC2);
000e40  20c2              MOVS     r0,#0xc2
000e42  f7fffffe          BL       lcd_write_data_16bit
;;;1055   		lcd_write_data_16bit(0x00);
000e46  2000              MOVS     r0,#0
000e48  f7fffffe          BL       lcd_write_data_16bit
;;;1056   		lcd_write_data_16bit(0xC7);
000e4c  20c7              MOVS     r0,#0xc7
000e4e  f7fffffe          BL       lcd_write_data_16bit
;;;1057   		lcd_write_data_16bit(0x00);
000e52  2000              MOVS     r0,#0
000e54  f7fffffe          BL       lcd_write_data_16bit
;;;1058   		lcd_write_data_16bit(0xD1);
000e58  20d1              MOVS     r0,#0xd1
000e5a  f7fffffe          BL       lcd_write_data_16bit
;;;1059   		lcd_write_data_16bit(0x00);
000e5e  2000              MOVS     r0,#0
000e60  f7fffffe          BL       lcd_write_data_16bit
;;;1060   		lcd_write_data_16bit(0xD5);
000e64  20d5              MOVS     r0,#0xd5
000e66  f7fffffe          BL       lcd_write_data_16bit
;;;1061   		lcd_write_data_16bit(0x00);
000e6a  2000              MOVS     r0,#0
000e6c  f7fffffe          BL       lcd_write_data_16bit
;;;1062   		lcd_write_data_16bit(0xDD);
000e70  20dd              MOVS     r0,#0xdd
000e72  f7fffffe          BL       lcd_write_data_16bit
;;;1063   		lcd_write_data_16bit(0x00);
000e76  2000              MOVS     r0,#0
000e78  f7fffffe          BL       lcd_write_data_16bit
;;;1064   		lcd_write_data_16bit(0xF3);
000e7c  20f3              MOVS     r0,#0xf3
000e7e  f7fffffe          BL       lcd_write_data_16bit
;;;1065   		lcd_write_data_16bit(0x00);
000e82  2000              MOVS     r0,#0
000e84  f7fffffe          BL       lcd_write_data_16bit
;;;1066   
;;;1067   		lcd_wr_reg(0xE4);
000e88  20e4              MOVS     r0,#0xe4
000e8a  f7fffffe          BL       lcd_wr_reg
;;;1068   		lcd_write_data_16bit(0x01);
000e8e  2001              MOVS     r0,#1
000e90  f7fffffe          BL       lcd_write_data_16bit
;;;1069   		lcd_write_data_16bit(0x00);
000e94  2000              MOVS     r0,#0
000e96  f7fffffe          BL       lcd_write_data_16bit
;;;1070   		lcd_write_data_16bit(0x01);
000e9a  2001              MOVS     r0,#1
000e9c  f7fffffe          BL       lcd_write_data_16bit
;;;1071   		lcd_write_data_16bit(0x00);
000ea0  2000              MOVS     r0,#0
000ea2  f7fffffe          BL       lcd_write_data_16bit
;;;1072   		lcd_write_data_16bit(0x02);
000ea6  2002              MOVS     r0,#2
000ea8  f7fffffe          BL       lcd_write_data_16bit
;;;1073   		lcd_write_data_16bit(0x00);
000eac  2000              MOVS     r0,#0
000eae  f7fffffe          BL       lcd_write_data_16bit
;;;1074   		lcd_write_data_16bit(0x2A);
000eb2  202a              MOVS     r0,#0x2a
000eb4  f7fffffe          BL       lcd_write_data_16bit
;;;1075   		lcd_write_data_16bit(0x00);
000eb8  2000              MOVS     r0,#0
000eba  f7fffffe          BL       lcd_write_data_16bit
;;;1076   		lcd_write_data_16bit(0x3C);
000ebe  203c              MOVS     r0,#0x3c
000ec0  f7fffffe          BL       lcd_write_data_16bit
;;;1077   		lcd_write_data_16bit(0x00);
000ec4  2000              MOVS     r0,#0
000ec6  f7fffffe          BL       lcd_write_data_16bit
;;;1078   		lcd_write_data_16bit(0x4B);
000eca  204b              MOVS     r0,#0x4b
000ecc  f7fffffe          BL       lcd_write_data_16bit
;;;1079   		lcd_write_data_16bit(0x00);
000ed0  2000              MOVS     r0,#0
000ed2  f7fffffe          BL       lcd_write_data_16bit
;;;1080   		lcd_write_data_16bit(0x5D);
000ed6  205d              MOVS     r0,#0x5d
000ed8  f7fffffe          BL       lcd_write_data_16bit
;;;1081   		lcd_write_data_16bit(0x00);
000edc  2000              MOVS     r0,#0
000ede  f7fffffe          BL       lcd_write_data_16bit
;;;1082   		lcd_write_data_16bit(0x74);
000ee2  2074              MOVS     r0,#0x74
000ee4  f7fffffe          BL       lcd_write_data_16bit
;;;1083   		lcd_write_data_16bit(0x00);
000ee8  2000              MOVS     r0,#0
000eea  f7fffffe          BL       lcd_write_data_16bit
;;;1084   		lcd_write_data_16bit(0x84);
000eee  2084              MOVS     r0,#0x84
000ef0  f7fffffe          BL       lcd_write_data_16bit
;;;1085   		lcd_write_data_16bit(0x00);
000ef4  2000              MOVS     r0,#0
000ef6  f7fffffe          BL       lcd_write_data_16bit
;;;1086   		lcd_write_data_16bit(0x93);
000efa  2093              MOVS     r0,#0x93
000efc  f7fffffe          BL       lcd_write_data_16bit
;;;1087   		lcd_write_data_16bit(0x00);
000f00  2000              MOVS     r0,#0
000f02  f7fffffe          BL       lcd_write_data_16bit
;;;1088   		lcd_write_data_16bit(0xA2);
000f06  20a2              MOVS     r0,#0xa2
000f08  f7fffffe          BL       lcd_write_data_16bit
;;;1089   		lcd_write_data_16bit(0x00);
000f0c  2000              MOVS     r0,#0
000f0e  f7fffffe          BL       lcd_write_data_16bit
;;;1090   		lcd_write_data_16bit(0xB3);
000f12  20b3              MOVS     r0,#0xb3
000f14  f7fffffe          BL       lcd_write_data_16bit
;;;1091   		lcd_write_data_16bit(0x00);
000f18  2000              MOVS     r0,#0
000f1a  f7fffffe          BL       lcd_write_data_16bit
;;;1092   		lcd_write_data_16bit(0xBE);
000f1e  20be              MOVS     r0,#0xbe
000f20  f7fffffe          BL       lcd_write_data_16bit
;;;1093   		lcd_write_data_16bit(0x00);
000f24  2000              MOVS     r0,#0
000f26  f7fffffe          BL       lcd_write_data_16bit
;;;1094   		lcd_write_data_16bit(0xC4);
000f2a  20c4              MOVS     r0,#0xc4
000f2c  f7fffffe          BL       lcd_write_data_16bit
;;;1095   		lcd_write_data_16bit(0x00);
000f30  2000              MOVS     r0,#0
000f32  f7fffffe          BL       lcd_write_data_16bit
;;;1096   		lcd_write_data_16bit(0xCD);
000f36  20cd              MOVS     r0,#0xcd
000f38  f7fffffe          BL       lcd_write_data_16bit
;;;1097   		lcd_write_data_16bit(0x00);
000f3c  2000              MOVS     r0,#0
000f3e  f7fffffe          BL       lcd_write_data_16bit
;;;1098   		lcd_write_data_16bit(0xD3);
000f42  20d3              MOVS     r0,#0xd3
000f44  f7fffffe          BL       lcd_write_data_16bit
;;;1099   		lcd_write_data_16bit(0x00);
000f48  2000              MOVS     r0,#0
000f4a  f7fffffe          BL       lcd_write_data_16bit
;;;1100   		lcd_write_data_16bit(0xDD);
000f4e  20dd              MOVS     r0,#0xdd
000f50  f7fffffe          BL       lcd_write_data_16bit
;;;1101   		lcd_write_data_16bit(0x00);
000f54  2000              MOVS     r0,#0
000f56  f7fffffe          BL       lcd_write_data_16bit
;;;1102   		lcd_write_data_16bit(0xF3);
000f5a  20f3              MOVS     r0,#0xf3
000f5c  f7fffffe          BL       lcd_write_data_16bit
;;;1103   		lcd_write_data_16bit(0x00);
000f60  2000              MOVS     r0,#0
000f62  f7fffffe          BL       lcd_write_data_16bit
;;;1104   		lcd_wr_reg(0xE5);
000f66  20e5              MOVS     r0,#0xe5
000f68  f7fffffe          BL       lcd_wr_reg
;;;1105   		lcd_write_data_16bit(0x00);
000f6c  2000              MOVS     r0,#0
000f6e  f7fffffe          BL       lcd_write_data_16bit
;;;1106   		lcd_write_data_16bit(0x00);
000f72  2000              MOVS     r0,#0
000f74  f7fffffe          BL       lcd_write_data_16bit
;;;1107   		lcd_write_data_16bit(0x00);
000f78  2000              MOVS     r0,#0
000f7a  f7fffffe          BL       lcd_write_data_16bit
;;;1108   		lcd_write_data_16bit(0x00);
000f7e  2000              MOVS     r0,#0
000f80  f7fffffe          BL       lcd_write_data_16bit
;;;1109   		lcd_write_data_16bit(0x02);
000f84  2002              MOVS     r0,#2
000f86  f7fffffe          BL       lcd_write_data_16bit
;;;1110   		lcd_write_data_16bit(0x00);
000f8a  2000              MOVS     r0,#0
000f8c  f7fffffe          BL       lcd_write_data_16bit
;;;1111   		lcd_write_data_16bit(0x29);
000f90  2029              MOVS     r0,#0x29
000f92  f7fffffe          BL       lcd_write_data_16bit
;;;1112   		lcd_write_data_16bit(0x00);
000f96  2000              MOVS     r0,#0
000f98  f7fffffe          BL       lcd_write_data_16bit
;;;1113   		lcd_write_data_16bit(0x3C);
000f9c  203c              MOVS     r0,#0x3c
000f9e  f7fffffe          BL       lcd_write_data_16bit
;;;1114   		lcd_write_data_16bit(0x00);
000fa2  2000              MOVS     r0,#0
000fa4  f7fffffe          BL       lcd_write_data_16bit
;;;1115   		lcd_write_data_16bit(0x4B);
000fa8  204b              MOVS     r0,#0x4b
000faa  f7fffffe          BL       lcd_write_data_16bit
;;;1116   		lcd_write_data_16bit(0x00);
000fae  2000              MOVS     r0,#0
000fb0  f7fffffe          BL       lcd_write_data_16bit
;;;1117   		lcd_write_data_16bit(0x5D);
000fb4  205d              MOVS     r0,#0x5d
000fb6  f7fffffe          BL       lcd_write_data_16bit
;;;1118   		lcd_write_data_16bit(0x00);
000fba  2000              MOVS     r0,#0
000fbc  f7fffffe          BL       lcd_write_data_16bit
;;;1119   		lcd_write_data_16bit(0x74);
000fc0  2074              MOVS     r0,#0x74
000fc2  f7fffffe          BL       lcd_write_data_16bit
;;;1120   		lcd_write_data_16bit(0x00);
000fc6  2000              MOVS     r0,#0
000fc8  f7fffffe          BL       lcd_write_data_16bit
;;;1121   		lcd_write_data_16bit(0x84);
000fcc  2084              MOVS     r0,#0x84
000fce  f7fffffe          BL       lcd_write_data_16bit
;;;1122   		lcd_write_data_16bit(0x00);
000fd2  2000              MOVS     r0,#0
000fd4  f7fffffe          BL       lcd_write_data_16bit
;;;1123   		lcd_write_data_16bit(0x93);
000fd8  2093              MOVS     r0,#0x93
000fda  f7fffffe          BL       lcd_write_data_16bit
;;;1124   		lcd_write_data_16bit(0x00);
000fde  2000              MOVS     r0,#0
000fe0  f7fffffe          BL       lcd_write_data_16bit
;;;1125   		lcd_write_data_16bit(0xA2);
000fe4  20a2              MOVS     r0,#0xa2
000fe6  f7fffffe          BL       lcd_write_data_16bit
;;;1126   		lcd_write_data_16bit(0x00);
000fea  2000              MOVS     r0,#0
000fec  f7fffffe          BL       lcd_write_data_16bit
;;;1127   		lcd_write_data_16bit(0xB3);
000ff0  20b3              MOVS     r0,#0xb3
000ff2  f7fffffe          BL       lcd_write_data_16bit
;;;1128   		lcd_write_data_16bit(0x00);
000ff6  2000              MOVS     r0,#0
000ff8  f7fffffe          BL       lcd_write_data_16bit
;;;1129   		lcd_write_data_16bit(0xBE);
000ffc  20be              MOVS     r0,#0xbe
000ffe  f7fffffe          BL       lcd_write_data_16bit
;;;1130   		lcd_write_data_16bit(0x00);
001002  2000              MOVS     r0,#0
001004  f7fffffe          BL       lcd_write_data_16bit
;;;1131   		lcd_write_data_16bit(0xC4);
001008  20c4              MOVS     r0,#0xc4
00100a  f7fffffe          BL       lcd_write_data_16bit
;;;1132   		lcd_write_data_16bit(0x00);
00100e  2000              MOVS     r0,#0
001010  f7fffffe          BL       lcd_write_data_16bit
;;;1133   		lcd_write_data_16bit(0xCD);
001014  20cd              MOVS     r0,#0xcd
001016  f7fffffe          BL       lcd_write_data_16bit
;;;1134   		lcd_write_data_16bit(0x00);
00101a  2000              MOVS     r0,#0
00101c  f7fffffe          BL       lcd_write_data_16bit
;;;1135   		lcd_write_data_16bit(0xD3);
001020  20d3              MOVS     r0,#0xd3
001022  f7fffffe          BL       lcd_write_data_16bit
;;;1136   		lcd_write_data_16bit(0x00);
001026  2000              MOVS     r0,#0
001028  f7fffffe          BL       lcd_write_data_16bit
;;;1137   		lcd_write_data_16bit(0xDC);
00102c  20dc              MOVS     r0,#0xdc
00102e  f7fffffe          BL       lcd_write_data_16bit
;;;1138   		lcd_write_data_16bit(0x00);
001032  2000              MOVS     r0,#0
001034  f7fffffe          BL       lcd_write_data_16bit
;;;1139   		lcd_write_data_16bit(0xF3);
001038  20f3              MOVS     r0,#0xf3
00103a  f7fffffe          BL       lcd_write_data_16bit
;;;1140   		lcd_write_data_16bit(0x00);
00103e  2000              MOVS     r0,#0
001040  f7fffffe          BL       lcd_write_data_16bit
;;;1141   
;;;1142   		lcd_wr_reg(0xE6);
001044  20e6              MOVS     r0,#0xe6
001046  f7fffffe          BL       lcd_wr_reg
;;;1143   		lcd_write_data_16bit(0x11);
00104a  2011              MOVS     r0,#0x11
00104c  f7fffffe          BL       lcd_write_data_16bit
;;;1144   		lcd_write_data_16bit(0x00);
001050  2000              MOVS     r0,#0
001052  f7fffffe          BL       lcd_write_data_16bit
;;;1145   		lcd_write_data_16bit(0x34);
001056  2034              MOVS     r0,#0x34
001058  f7fffffe          BL       lcd_write_data_16bit
;;;1146   		lcd_write_data_16bit(0x00);
00105c  2000              MOVS     r0,#0
00105e  f7fffffe          BL       lcd_write_data_16bit
;;;1147   		lcd_write_data_16bit(0x56);
001062  2056              MOVS     r0,#0x56
001064  f7fffffe          BL       lcd_write_data_16bit
;;;1148   		lcd_write_data_16bit(0x00);
001068  2000              MOVS     r0,#0
00106a  f7fffffe          BL       lcd_write_data_16bit
;;;1149   		lcd_write_data_16bit(0x76);
00106e  2076              MOVS     r0,#0x76
001070  f7fffffe          BL       lcd_write_data_16bit
;;;1150   		lcd_write_data_16bit(0x00);
001074  2000              MOVS     r0,#0
001076  f7fffffe          BL       lcd_write_data_16bit
;;;1151   		lcd_write_data_16bit(0x77);
00107a  2077              MOVS     r0,#0x77
00107c  f7fffffe          BL       lcd_write_data_16bit
;;;1152   		lcd_write_data_16bit(0x00);
001080  2000              MOVS     r0,#0
001082  f7fffffe          BL       lcd_write_data_16bit
;;;1153   		lcd_write_data_16bit(0x66);
001086  2066              MOVS     r0,#0x66
001088  f7fffffe          BL       lcd_write_data_16bit
;;;1154   		lcd_write_data_16bit(0x00);
00108c  2000              MOVS     r0,#0
00108e  f7fffffe          BL       lcd_write_data_16bit
;;;1155   		lcd_write_data_16bit(0x88);
001092  2088              MOVS     r0,#0x88
001094  f7fffffe          BL       lcd_write_data_16bit
;;;1156   		lcd_write_data_16bit(0x00);
001098  2000              MOVS     r0,#0
00109a  f7fffffe          BL       lcd_write_data_16bit
;;;1157   		lcd_write_data_16bit(0x99);
00109e  2099              MOVS     r0,#0x99
0010a0  f7fffffe          BL       lcd_write_data_16bit
;;;1158   		lcd_write_data_16bit(0x00);
0010a4  2000              MOVS     r0,#0
0010a6  f7fffffe          BL       lcd_write_data_16bit
;;;1159   		lcd_write_data_16bit(0xBB);
0010aa  20bb              MOVS     r0,#0xbb
0010ac  f7fffffe          BL       lcd_write_data_16bit
;;;1160   		lcd_write_data_16bit(0x00);
0010b0  2000              MOVS     r0,#0
0010b2  f7fffffe          BL       lcd_write_data_16bit
;;;1161   		lcd_write_data_16bit(0x99);
0010b6  2099              MOVS     r0,#0x99
0010b8  f7fffffe          BL       lcd_write_data_16bit
;;;1162   		lcd_write_data_16bit(0x00);
0010bc  2000              MOVS     r0,#0
0010be  f7fffffe          BL       lcd_write_data_16bit
;;;1163   		lcd_write_data_16bit(0x66);
0010c2  2066              MOVS     r0,#0x66
0010c4  f7fffffe          BL       lcd_write_data_16bit
;;;1164   		lcd_write_data_16bit(0x00);
0010c8  2000              MOVS     r0,#0
0010ca  f7fffffe          BL       lcd_write_data_16bit
;;;1165   		lcd_write_data_16bit(0x55);
0010ce  2055              MOVS     r0,#0x55
0010d0  f7fffffe          BL       lcd_write_data_16bit
;;;1166   		lcd_write_data_16bit(0x00);
0010d4  2000              MOVS     r0,#0
0010d6  f7fffffe          BL       lcd_write_data_16bit
;;;1167   		lcd_write_data_16bit(0x55);
0010da  2055              MOVS     r0,#0x55
0010dc  f7fffffe          BL       lcd_write_data_16bit
;;;1168   		lcd_write_data_16bit(0x00);
0010e0  2000              MOVS     r0,#0
0010e2  f7fffffe          BL       lcd_write_data_16bit
;;;1169   		lcd_write_data_16bit(0x45);
0010e6  2045              MOVS     r0,#0x45
0010e8  f7fffffe          BL       lcd_write_data_16bit
;;;1170   		lcd_write_data_16bit(0x00);
0010ec  2000              MOVS     r0,#0
0010ee  f7fffffe          BL       lcd_write_data_16bit
;;;1171   		lcd_write_data_16bit(0x43);
0010f2  2043              MOVS     r0,#0x43
0010f4  f7fffffe          BL       lcd_write_data_16bit
;;;1172   		lcd_write_data_16bit(0x00);
0010f8  2000              MOVS     r0,#0
0010fa  f7fffffe          BL       lcd_write_data_16bit
;;;1173   		lcd_write_data_16bit(0x44);
0010fe  2044              MOVS     r0,#0x44
001100  f7fffffe          BL       lcd_write_data_16bit
;;;1174   		lcd_write_data_16bit(0x00);
001104  2000              MOVS     r0,#0
001106  f7fffffe          BL       lcd_write_data_16bit
;;;1175   
;;;1176   		lcd_wr_reg(0xE7);
00110a  20e7              MOVS     r0,#0xe7
00110c  f7fffffe          BL       lcd_wr_reg
;;;1177   		lcd_write_data_16bit(0x32);
001110  2032              MOVS     r0,#0x32
001112  f7fffffe          BL       lcd_write_data_16bit
;;;1178   		lcd_write_data_16bit(0x00);
001116  2000              MOVS     r0,#0
001118  f7fffffe          BL       lcd_write_data_16bit
;;;1179   		lcd_write_data_16bit(0x55);
00111c  2055              MOVS     r0,#0x55
00111e  f7fffffe          BL       lcd_write_data_16bit
;;;1180   		lcd_write_data_16bit(0x00);
001122  2000              MOVS     r0,#0
001124  f7fffffe          BL       lcd_write_data_16bit
;;;1181   		lcd_write_data_16bit(0x76);
001128  2076              MOVS     r0,#0x76
00112a  f7fffffe          BL       lcd_write_data_16bit
;;;1182   		lcd_write_data_16bit(0x00);
00112e  2000              MOVS     r0,#0
001130  f7fffffe          BL       lcd_write_data_16bit
;;;1183   		lcd_write_data_16bit(0x66);
001134  2066              MOVS     r0,#0x66
001136  f7fffffe          BL       lcd_write_data_16bit
;;;1184   		lcd_write_data_16bit(0x00);
00113a  2000              MOVS     r0,#0
00113c  f7fffffe          BL       lcd_write_data_16bit
;;;1185   		lcd_write_data_16bit(0x67);
001140  2067              MOVS     r0,#0x67
001142  f7fffffe          BL       lcd_write_data_16bit
;;;1186   		lcd_write_data_16bit(0x00);
001146  2000              MOVS     r0,#0
001148  f7fffffe          BL       lcd_write_data_16bit
;;;1187   		lcd_write_data_16bit(0x67);
00114c  2067              MOVS     r0,#0x67
00114e  f7fffffe          BL       lcd_write_data_16bit
;;;1188   		lcd_write_data_16bit(0x00);
001152  2000              MOVS     r0,#0
001154  f7fffffe          BL       lcd_write_data_16bit
;;;1189   		lcd_write_data_16bit(0x87);
001158  2087              MOVS     r0,#0x87
00115a  f7fffffe          BL       lcd_write_data_16bit
;;;1190   		lcd_write_data_16bit(0x00);
00115e  2000              MOVS     r0,#0
001160  f7fffffe          BL       lcd_write_data_16bit
;;;1191   		lcd_write_data_16bit(0x99);
001164  2099              MOVS     r0,#0x99
001166  f7fffffe          BL       lcd_write_data_16bit
;;;1192   		lcd_write_data_16bit(0x00);
00116a  2000              MOVS     r0,#0
00116c  f7fffffe          BL       lcd_write_data_16bit
;;;1193   		lcd_write_data_16bit(0xBB);
001170  20bb              MOVS     r0,#0xbb
001172  f7fffffe          BL       lcd_write_data_16bit
;;;1194   		lcd_write_data_16bit(0x00);
001176  2000              MOVS     r0,#0
001178  f7fffffe          BL       lcd_write_data_16bit
;;;1195   		lcd_write_data_16bit(0x99);
00117c  2099              MOVS     r0,#0x99
00117e  f7fffffe          BL       lcd_write_data_16bit
;;;1196   		lcd_write_data_16bit(0x00);
001182  2000              MOVS     r0,#0
001184  f7fffffe          BL       lcd_write_data_16bit
;;;1197   		lcd_write_data_16bit(0x77);
001188  2077              MOVS     r0,#0x77
00118a  f7fffffe          BL       lcd_write_data_16bit
;;;1198   		lcd_write_data_16bit(0x00);
00118e  2000              MOVS     r0,#0
001190  f7fffffe          BL       lcd_write_data_16bit
;;;1199   		lcd_write_data_16bit(0x44);
001194  2044              MOVS     r0,#0x44
001196  f7fffffe          BL       lcd_write_data_16bit
;;;1200   		lcd_write_data_16bit(0x00);
00119a  2000              MOVS     r0,#0
00119c  f7fffffe          BL       lcd_write_data_16bit
;;;1201   		lcd_write_data_16bit(0x56);
0011a0  2056              MOVS     r0,#0x56
0011a2  f7fffffe          BL       lcd_write_data_16bit
;;;1202   		lcd_write_data_16bit(0x00);
0011a6  2000              MOVS     r0,#0
0011a8  f7fffffe          BL       lcd_write_data_16bit
;;;1203   		lcd_write_data_16bit(0x23); 
0011ac  2023              MOVS     r0,#0x23
0011ae  f7fffffe          BL       lcd_write_data_16bit
;;;1204   		lcd_write_data_16bit(0x00);
0011b2  2000              MOVS     r0,#0
0011b4  f7fffffe          BL       lcd_write_data_16bit
;;;1205   		lcd_write_data_16bit(0x33);
0011b8  2033              MOVS     r0,#0x33
0011ba  f7fffffe          BL       lcd_write_data_16bit
;;;1206   		lcd_write_data_16bit(0x00);
0011be  2000              MOVS     r0,#0
0011c0  f7fffffe          BL       lcd_write_data_16bit
;;;1207   		lcd_write_data_16bit(0x45);
0011c4  2045              MOVS     r0,#0x45
0011c6  f7fffffe          BL       lcd_write_data_16bit
;;;1208   		lcd_write_data_16bit(0x00);
0011ca  2000              MOVS     r0,#0
0011cc  f7fffffe          BL       lcd_write_data_16bit
;;;1209   
;;;1210   		lcd_wr_reg(0xE8);
0011d0  20e8              MOVS     r0,#0xe8
0011d2  f7fffffe          BL       lcd_wr_reg
;;;1211   		lcd_write_data_16bit(0x00);
0011d6  2000              MOVS     r0,#0
0011d8  f7fffffe          BL       lcd_write_data_16bit
;;;1212   		lcd_write_data_16bit(0x00);
0011dc  2000              MOVS     r0,#0
0011de  f7fffffe          BL       lcd_write_data_16bit
;;;1213   		lcd_write_data_16bit(0x99);
0011e2  2099              MOVS     r0,#0x99
0011e4  f7fffffe          BL       lcd_write_data_16bit
;;;1214   		lcd_write_data_16bit(0x00);
0011e8  2000              MOVS     r0,#0
0011ea  f7fffffe          BL       lcd_write_data_16bit
;;;1215   		lcd_write_data_16bit(0x87);
0011ee  2087              MOVS     r0,#0x87
0011f0  f7fffffe          BL       lcd_write_data_16bit
;;;1216   		lcd_write_data_16bit(0x00);
0011f4  2000              MOVS     r0,#0
0011f6  f7fffffe          BL       lcd_write_data_16bit
;;;1217   		lcd_write_data_16bit(0x88);
0011fa  2088              MOVS     r0,#0x88
0011fc  f7fffffe          BL       lcd_write_data_16bit
;;;1218   		lcd_write_data_16bit(0x00);
001200  2000              MOVS     r0,#0
001202  f7fffffe          BL       lcd_write_data_16bit
;;;1219   		lcd_write_data_16bit(0x77);
001206  2077              MOVS     r0,#0x77
001208  f7fffffe          BL       lcd_write_data_16bit
;;;1220   		lcd_write_data_16bit(0x00);
00120c  2000              MOVS     r0,#0
00120e  f7fffffe          BL       lcd_write_data_16bit
;;;1221   		lcd_write_data_16bit(0x66);
001212  2066              MOVS     r0,#0x66
001214  f7fffffe          BL       lcd_write_data_16bit
;;;1222   		lcd_write_data_16bit(0x00);
001218  2000              MOVS     r0,#0
00121a  f7fffffe          BL       lcd_write_data_16bit
;;;1223   		lcd_write_data_16bit(0x88);
00121e  2088              MOVS     r0,#0x88
001220  f7fffffe          BL       lcd_write_data_16bit
;;;1224   		lcd_write_data_16bit(0x00);
001224  2000              MOVS     r0,#0
001226  f7fffffe          BL       lcd_write_data_16bit
;;;1225   		lcd_write_data_16bit(0xAA);
00122a  20aa              MOVS     r0,#0xaa
00122c  f7fffffe          BL       lcd_write_data_16bit
;;;1226   		lcd_write_data_16bit(0x00);
001230  2000              MOVS     r0,#0
001232  f7fffffe          BL       lcd_write_data_16bit
;;;1227   		lcd_write_data_16bit(0xBB);
001236  20bb              MOVS     r0,#0xbb
001238  f7fffffe          BL       lcd_write_data_16bit
;;;1228   		lcd_write_data_16bit(0x00);
00123c  2000              MOVS     r0,#0
00123e  f7fffffe          BL       lcd_write_data_16bit
;;;1229   		lcd_write_data_16bit(0x99);
001242  2099              MOVS     r0,#0x99
001244  f7fffffe          BL       lcd_write_data_16bit
;;;1230   		lcd_write_data_16bit(0x00);
001248  2000              MOVS     r0,#0
00124a  f7fffffe          BL       lcd_write_data_16bit
;;;1231   		lcd_write_data_16bit(0x66);
00124e  2066              MOVS     r0,#0x66
001250  f7fffffe          BL       lcd_write_data_16bit
;;;1232   		lcd_write_data_16bit(0x00);
001254  2000              MOVS     r0,#0
001256  f7fffffe          BL       lcd_write_data_16bit
;;;1233   		lcd_write_data_16bit(0x55);
00125a  2055              MOVS     r0,#0x55
00125c  f7fffffe          BL       lcd_write_data_16bit
;;;1234   		lcd_write_data_16bit(0x00);
001260  2000              MOVS     r0,#0
001262  f7fffffe          BL       lcd_write_data_16bit
;;;1235   		lcd_write_data_16bit(0x55);
001266  2055              MOVS     r0,#0x55
001268  f7fffffe          BL       lcd_write_data_16bit
;;;1236   		lcd_write_data_16bit(0x00);
00126c  2000              MOVS     r0,#0
00126e  f7fffffe          BL       lcd_write_data_16bit
;;;1237   		lcd_write_data_16bit(0x44);
001272  2044              MOVS     r0,#0x44
001274  f7fffffe          BL       lcd_write_data_16bit
;;;1238   		lcd_write_data_16bit(0x00);
001278  2000              MOVS     r0,#0
00127a  f7fffffe          BL       lcd_write_data_16bit
;;;1239   		lcd_write_data_16bit(0x44);
00127e  2044              MOVS     r0,#0x44
001280  f7fffffe          BL       lcd_write_data_16bit
;;;1240   		lcd_write_data_16bit(0x00);
001284  2000              MOVS     r0,#0
001286  f7fffffe          BL       lcd_write_data_16bit
;;;1241   		lcd_write_data_16bit(0x55);
00128a  2055              MOVS     r0,#0x55
00128c  f7fffffe          BL       lcd_write_data_16bit
;;;1242   		lcd_write_data_16bit(0x00);
001290  2000              MOVS     r0,#0
001292  f7fffffe          BL       lcd_write_data_16bit
;;;1243   
;;;1244   		lcd_wr_reg(0xE9);
001296  20e9              MOVS     r0,#0xe9
001298  f7fffffe          BL       lcd_wr_reg
;;;1245   		lcd_write_data_16bit(0xAA);
00129c  20aa              MOVS     r0,#0xaa
00129e  f7fffffe          BL       lcd_write_data_16bit
;;;1246   		lcd_write_data_16bit(0x00);
0012a2  2000              MOVS     r0,#0
0012a4  f7fffffe          BL       lcd_write_data_16bit
;;;1247   		lcd_write_data_16bit(0x00);
0012a8  2000              MOVS     r0,#0
0012aa  f7fffffe          BL       lcd_write_data_16bit
;;;1248   		lcd_write_data_16bit(0x00);
0012ae  2000              MOVS     r0,#0
0012b0  f7fffffe          BL       lcd_write_data_16bit
;;;1249   
;;;1250   		lcd_wr_reg(0x00);
0012b4  2000              MOVS     r0,#0
0012b6  f7fffffe          BL       lcd_wr_reg
;;;1251   		lcd_write_data_16bit(0xAA);
0012ba  20aa              MOVS     r0,#0xaa
0012bc  f7fffffe          BL       lcd_write_data_16bit
;;;1252   
;;;1253   		lcd_wr_reg(0xCF);
0012c0  20cf              MOVS     r0,#0xcf
0012c2  f7fffffe          BL       lcd_wr_reg
;;;1254   		lcd_write_data_16bit(0x00);
0012c6  2000              MOVS     r0,#0
0012c8  f7fffffe          BL       lcd_write_data_16bit
;;;1255   		lcd_write_data_16bit(0x00);
0012cc  2000              MOVS     r0,#0
0012ce  f7fffffe          BL       lcd_write_data_16bit
;;;1256   		lcd_write_data_16bit(0x00);
0012d2  2000              MOVS     r0,#0
0012d4  f7fffffe          BL       lcd_write_data_16bit
;;;1257   		lcd_write_data_16bit(0x00);
0012d8  2000              MOVS     r0,#0
0012da  f7fffffe          BL       lcd_write_data_16bit
;;;1258   		lcd_write_data_16bit(0x00);
0012de  2000              MOVS     r0,#0
0012e0  f7fffffe          BL       lcd_write_data_16bit
;;;1259   		lcd_write_data_16bit(0x00);
0012e4  2000              MOVS     r0,#0
0012e6  f7fffffe          BL       lcd_write_data_16bit
;;;1260   		lcd_write_data_16bit(0x00);
0012ea  2000              MOVS     r0,#0
0012ec  f7fffffe          BL       lcd_write_data_16bit
;;;1261   		lcd_write_data_16bit(0x00);
0012f0  2000              MOVS     r0,#0
0012f2  f7fffffe          BL       lcd_write_data_16bit
;;;1262   		lcd_write_data_16bit(0x00);
0012f6  2000              MOVS     r0,#0
0012f8  f7fffffe          BL       lcd_write_data_16bit
;;;1263   		lcd_write_data_16bit(0x00);
0012fc  2000              MOVS     r0,#0
0012fe  f7fffffe          BL       lcd_write_data_16bit
;;;1264   		lcd_write_data_16bit(0x00);
001302  2000              MOVS     r0,#0
001304  f7fffffe          BL       lcd_write_data_16bit
;;;1265   		lcd_write_data_16bit(0x00);
001308  2000              MOVS     r0,#0
00130a  f7fffffe          BL       lcd_write_data_16bit
;;;1266   		lcd_write_data_16bit(0x00);
00130e  2000              MOVS     r0,#0
001310  f7fffffe          BL       lcd_write_data_16bit
;;;1267   		lcd_write_data_16bit(0x00);
001314  2000              MOVS     r0,#0
001316  f7fffffe          BL       lcd_write_data_16bit
;;;1268   		lcd_write_data_16bit(0x00);
00131a  2000              MOVS     r0,#0
00131c  f7fffffe          BL       lcd_write_data_16bit
;;;1269   		lcd_write_data_16bit(0x00);
001320  2000              MOVS     r0,#0
001322  f7fffffe          BL       lcd_write_data_16bit
;;;1270   		lcd_write_data_16bit(0x00);
001326  2000              MOVS     r0,#0
001328  f7fffffe          BL       lcd_write_data_16bit
;;;1271   
;;;1272   		lcd_wr_reg(0xF0);
00132c  20f0              MOVS     r0,#0xf0
00132e  f7fffffe          BL       lcd_wr_reg
;;;1273   		lcd_write_data_16bit(0x00);
001332  2000              MOVS     r0,#0
001334  f7fffffe          BL       lcd_write_data_16bit
;;;1274   		lcd_write_data_16bit(0x50);
001338  2050              MOVS     r0,#0x50
00133a  f7fffffe          BL       lcd_write_data_16bit
;;;1275   		lcd_write_data_16bit(0x00);
00133e  2000              MOVS     r0,#0
001340  f7fffffe          BL       lcd_write_data_16bit
;;;1276   		lcd_write_data_16bit(0x00);
001344  2000              MOVS     r0,#0
001346  f7fffffe          BL       lcd_write_data_16bit
;;;1277   		lcd_write_data_16bit(0x00);
00134a  2000              MOVS     r0,#0
00134c  f7fffffe          BL       lcd_write_data_16bit
;;;1278   
;;;1279   		lcd_wr_reg(0xF3);
001350  20f3              MOVS     r0,#0xf3
001352  f7fffffe          BL       lcd_wr_reg
;;;1280   		lcd_write_data_16bit(0x00);
001356  2000              MOVS     r0,#0
001358  f7fffffe          BL       lcd_write_data_16bit
;;;1281   
;;;1282   		lcd_wr_reg(0xF9);
00135c  20f9              MOVS     r0,#0xf9
00135e  f7fffffe          BL       lcd_wr_reg
;;;1283   		lcd_write_data_16bit(0x06);
001362  2006              MOVS     r0,#6
001364  f7fffffe          BL       lcd_write_data_16bit
;;;1284   		lcd_write_data_16bit(0x10);
001368  2010              MOVS     r0,#0x10
00136a  f7fffffe          BL       lcd_write_data_16bit
;;;1285   		lcd_write_data_16bit(0x29);
00136e  2029              MOVS     r0,#0x29
001370  f7fffffe          BL       lcd_write_data_16bit
;;;1286   		lcd_write_data_16bit(0x00);
001374  2000              MOVS     r0,#0
001376  f7fffffe          BL       lcd_write_data_16bit
;;;1287   
;;;1288   		lcd_wr_reg(0x3A);
00137a  203a              MOVS     r0,#0x3a
00137c  f7fffffe          BL       lcd_wr_reg
;;;1289   		lcd_write_data_16bit(0x55);	//66
001380  2055              MOVS     r0,#0x55
001382  f7fffffe          BL       lcd_write_data_16bit
;;;1290   
;;;1291   		lcd_wr_reg(0x11);
001386  2011              MOVS     r0,#0x11
001388  f7fffffe          BL       lcd_wr_reg
;;;1292   		delay_ms(100);
00138c  2064              MOVS     r0,#0x64
00138e  f7fffffe          BL       delay_ms
;;;1293   		lcd_wr_reg(0x29);
001392  2029              MOVS     r0,#0x29
001394  f7fffffe          BL       lcd_wr_reg
;;;1294   		lcd_wr_reg(0x35);
001398  2035              MOVS     r0,#0x35
00139a  f7fffffe          BL       lcd_wr_reg
;;;1295   		lcd_write_data_16bit(0x00);
00139e  2000              MOVS     r0,#0
0013a0  f7fffffe          BL       lcd_write_data_16bit
;;;1296   
;;;1297   		lcd_wr_reg(0x51);
0013a4  2051              MOVS     r0,#0x51
0013a6  f7fffffe          BL       lcd_wr_reg
;;;1298   		lcd_write_data_16bit(0xFF);
0013aa  20ff              MOVS     r0,#0xff
0013ac  f7fffffe          BL       lcd_write_data_16bit
;;;1299   		lcd_wr_reg(0x53);
0013b0  2053              MOVS     r0,#0x53
0013b2  f7fffffe          BL       lcd_wr_reg
;;;1300   		lcd_write_data_16bit(0x2C);
0013b6  202c              MOVS     r0,#0x2c
0013b8  f7fffffe          BL       lcd_write_data_16bit
;;;1301   		lcd_wr_reg(0x55);
0013bc  2055              MOVS     r0,#0x55
0013be  f7fffffe          BL       lcd_wr_reg
;;;1302   		lcd_write_data_16bit(0x82);
0013c2  2082              MOVS     r0,#0x82
0013c4  f7fffffe          BL       lcd_write_data_16bit
;;;1303   		lcd_wr_reg(0x2c);
0013c8  202c              MOVS     r0,#0x2c
0013ca  e3fd              B        |L13.7112|
                  |L13.5068|
;;;1304   	}else if(lcd_dev.id==0x5510)
0013cc  42a8              CMP      r0,r5
0013ce  d17c              BNE      |L13.5322|
;;;1305   	{
;;;1306   		lcd_write_reg_data(0xF000,0x55);
0013d0  f44f4370          MOV      r3,#0xf000
0013d4  2155              MOVS     r1,#0x55
0013d6  4618              MOV      r0,r3
0013d8  f7fffffe          BL       lcd_write_reg_data
;;;1307   		lcd_write_reg_data(0xF001,0xAA);
0013dc  21aa              MOVS     r1,#0xaa
0013de  f24f0001          MOV      r0,#0xf001
0013e2  f7fffffe          BL       lcd_write_reg_data
;;;1308   		lcd_write_reg_data(0xF002,0x52);
0013e6  2152              MOVS     r1,#0x52
0013e8  f24f0002          MOV      r0,#0xf002
0013ec  f7fffffe          BL       lcd_write_reg_data
;;;1309   		lcd_write_reg_data(0xF003,0x08);
0013f0  2108              MOVS     r1,#8
0013f2  f24f0003          MOV      r0,#0xf003
0013f6  f7fffffe          BL       lcd_write_reg_data
;;;1310   		lcd_write_reg_data(0xF004,0x01);
0013fa  2101              MOVS     r1,#1
0013fc  f24f0004          MOV      r0,#0xf004
001400  f7fffffe          BL       lcd_write_reg_data
;;;1311   		//AVDD Set AVDD 5.2V
;;;1312   		lcd_write_reg_data(0xB000,0x0D);
001404  210d              MOVS     r1,#0xd
001406  f44f4030          MOV      r0,#0xb000
00140a  f7fffffe          BL       lcd_write_reg_data
;;;1313   		lcd_write_reg_data(0xB001,0x0D);
00140e  210d              MOVS     r1,#0xd
001410  f24b0001          MOV      r0,#0xb001
001414  f7fffffe          BL       lcd_write_reg_data
;;;1314   		lcd_write_reg_data(0xB002,0x0D);
001418  210d              MOVS     r1,#0xd
00141a  f24b0002          MOV      r0,#0xb002
00141e  f7fffffe          BL       lcd_write_reg_data
;;;1315   		//AVDD ratio
;;;1316   		lcd_write_reg_data(0xB600,0x34);
001422  2134              MOVS     r1,#0x34
001424  f44f4036          MOV      r0,#0xb600
001428  f7fffffe          BL       lcd_write_reg_data
;;;1317   		lcd_write_reg_data(0xB601,0x34);
00142c  2134              MOVS     r1,#0x34
00142e  f24b6001          MOV      r0,#0xb601
001432  f7fffffe          BL       lcd_write_reg_data
;;;1318   		lcd_write_reg_data(0xB602,0x34);
001436  2134              MOVS     r1,#0x34
001438  f24b6002          MOV      r0,#0xb602
00143c  f7fffffe          BL       lcd_write_reg_data
;;;1319   		//AVEE -5.2V
;;;1320   		lcd_write_reg_data(0xB100,0x0D);
001440  210d              MOVS     r1,#0xd
001442  f44f4031          MOV      r0,#0xb100
001446  f7fffffe          BL       lcd_write_reg_data
;;;1321   		lcd_write_reg_data(0xB101,0x0D);
00144a  210d              MOVS     r1,#0xd
00144c  f24b1001          MOV      r0,#0xb101
001450  f7fffffe          BL       lcd_write_reg_data
;;;1322   		lcd_write_reg_data(0xB102,0x0D);
001454  210d              MOVS     r1,#0xd
001456  f24b1002          MOV      r0,#0xb102
00145a  f7fffffe          BL       lcd_write_reg_data
;;;1323   		//AVEE ratio
;;;1324   		lcd_write_reg_data(0xB700,0x34);
00145e  2134              MOVS     r1,#0x34
001460  f44f4037          MOV      r0,#0xb700
001464  f7fffffe          BL       lcd_write_reg_data
;;;1325   		lcd_write_reg_data(0xB701,0x34);
001468  2134              MOVS     r1,#0x34
00146a  f24b7001          MOV      r0,#0xb701
00146e  f7fffffe          BL       lcd_write_reg_data
;;;1326   		lcd_write_reg_data(0xB702,0x34);
001472  2134              MOVS     r1,#0x34
001474  f24b7002          MOV      r0,#0xb702
001478  f7fffffe          BL       lcd_write_reg_data
;;;1327   		//VCL -2.5V
;;;1328   		lcd_write_reg_data(0xB200,0x00);
00147c  2100              MOVS     r1,#0
00147e  f44f4032          MOV      r0,#0xb200
001482  f7fffffe          BL       lcd_write_reg_data
;;;1329   		lcd_write_reg_data(0xB201,0x00);
001486  2100              MOVS     r1,#0
001488  f24b2001          MOV      r0,#0xb201
00148c  f7fffffe          BL       lcd_write_reg_data
;;;1330   		lcd_write_reg_data(0xB202,0x00);
001490  2100              MOVS     r1,#0
001492  f24b2002          MOV      r0,#0xb202
001496  f7fffffe          BL       lcd_write_reg_data
;;;1331   		//VCL ratio
;;;1332   		lcd_write_reg_data(0xB800,0x24);
00149a  2124              MOVS     r1,#0x24
00149c  f44f4038          MOV      r0,#0xb800
0014a0  f7fffffe          BL       lcd_write_reg_data
;;;1333   		lcd_write_reg_data(0xB801,0x24);
0014a4  2124              MOVS     r1,#0x24
0014a6  f64b0001          MOV      r0,#0xb801
0014aa  f7fffffe          BL       lcd_write_reg_data
;;;1334   		lcd_write_reg_data(0xB802,0x24);
0014ae  2124              MOVS     r1,#0x24
0014b0  f64b0002          MOV      r0,#0xb802
0014b4  f7fffffe          BL       lcd_write_reg_data
;;;1335   		//VGH 15V (Free pump)
;;;1336   		lcd_write_reg_data(0xBF00,0x01);
0014b8  2101              MOVS     r1,#1
0014ba  f44f403f          MOV      r0,#0xbf00
0014be  f7fffffe          BL       lcd_write_reg_data
;;;1337   		lcd_write_reg_data(0xB300,0x0F);
0014c2  210f              MOVS     r1,#0xf
0014c4  f44f4033          MOV      r0,#0xb300
0014c8  e000              B        |L13.5324|
                  |L13.5322|
0014ca  e3fc              B        |L13.7366|
                  |L13.5324|
0014cc  f7fffffe          BL       lcd_write_reg_data
;;;1338   		lcd_write_reg_data(0xB301,0x0F);
0014d0  210f              MOVS     r1,#0xf
0014d2  f24b3001          MOV      r0,#0xb301
0014d6  f7fffffe          BL       lcd_write_reg_data
;;;1339   		lcd_write_reg_data(0xB302,0x0F);
0014da  210f              MOVS     r1,#0xf
0014dc  f24b3002          MOV      r0,#0xb302
0014e0  f7fffffe          BL       lcd_write_reg_data
;;;1340   		//VGH ratio
;;;1341   		lcd_write_reg_data(0xB900,0x34);
0014e4  2134              MOVS     r1,#0x34
0014e6  f44f4039          MOV      r0,#0xb900
0014ea  f7fffffe          BL       lcd_write_reg_data
;;;1342   		lcd_write_reg_data(0xB901,0x34);
0014ee  2134              MOVS     r1,#0x34
0014f0  f64b1001          MOV      r0,#0xb901
0014f4  f7fffffe          BL       lcd_write_reg_data
;;;1343   		lcd_write_reg_data(0xB902,0x34);
0014f8  2134              MOVS     r1,#0x34
0014fa  f64b1002          MOV      r0,#0xb902
0014fe  f7fffffe          BL       lcd_write_reg_data
;;;1344   		//VGL_REG -10V
;;;1345   		lcd_write_reg_data(0xB500,0x08);
001502  2108              MOVS     r1,#8
001504  f44f4035          MOV      r0,#0xb500
001508  f7fffffe          BL       lcd_write_reg_data
;;;1346   		lcd_write_reg_data(0xB501,0x08);
00150c  2108              MOVS     r1,#8
00150e  f24b5001          MOV      r0,#0xb501
001512  f7fffffe          BL       lcd_write_reg_data
;;;1347   		lcd_write_reg_data(0xB502,0x08);
001516  2108              MOVS     r1,#8
001518  f24b5002          MOV      r0,#0xb502
00151c  f7fffffe          BL       lcd_write_reg_data
;;;1348   		lcd_write_reg_data(0xC200,0x03);
001520  2103              MOVS     r1,#3
001522  f44f4042          MOV      r0,#0xc200
001526  f7fffffe          BL       lcd_write_reg_data
;;;1349   		//VGLX ratio
;;;1350   		lcd_write_reg_data(0xBA00,0x24);
00152a  2124              MOVS     r1,#0x24
00152c  f44f403a          MOV      r0,#0xba00
001530  f7fffffe          BL       lcd_write_reg_data
;;;1351   		lcd_write_reg_data(0xBA01,0x24);
001534  2124              MOVS     r1,#0x24
001536  f64b2001          MOV      r0,#0xba01
00153a  f7fffffe          BL       lcd_write_reg_data
;;;1352   		lcd_write_reg_data(0xBA02,0x24);
00153e  2124              MOVS     r1,#0x24
001540  f64b2002          MOV      r0,#0xba02
001544  f7fffffe          BL       lcd_write_reg_data
;;;1353   		//VGMP/VGSP 4.5V/0V
;;;1354   		lcd_write_reg_data(0xBC00,0x00);
001548  2100              MOVS     r1,#0
00154a  f44f403c          MOV      r0,#0xbc00
00154e  f7fffffe          BL       lcd_write_reg_data
;;;1355   		lcd_write_reg_data(0xBC01,0x78);
001552  2178              MOVS     r1,#0x78
001554  f64b4001          MOV      r0,#0xbc01
001558  f7fffffe          BL       lcd_write_reg_data
;;;1356   		lcd_write_reg_data(0xBC02,0x00);
00155c  2100              MOVS     r1,#0
00155e  f64b4002          MOV      r0,#0xbc02
001562  f7fffffe          BL       lcd_write_reg_data
;;;1357   		//VGMN/VGSN -4.5V/0V
;;;1358   		lcd_write_reg_data(0xBD00,0x00);
001566  2100              MOVS     r1,#0
001568  f44f403d          MOV      r0,#0xbd00
00156c  f7fffffe          BL       lcd_write_reg_data
;;;1359   		lcd_write_reg_data(0xBD01,0x78);
001570  2178              MOVS     r1,#0x78
001572  f64b5001          MOV      r0,#0xbd01
001576  f7fffffe          BL       lcd_write_reg_data
;;;1360   		lcd_write_reg_data(0xBD02,0x00);
00157a  2100              MOVS     r1,#0
00157c  f64b5002          MOV      r0,#0xbd02
001580  f7fffffe          BL       lcd_write_reg_data
;;;1361   		//VCOM
;;;1362   		lcd_write_reg_data(0xBE00,0x00);
001584  2100              MOVS     r1,#0
001586  f44f403e          MOV      r0,#0xbe00
00158a  f7fffffe          BL       lcd_write_reg_data
;;;1363   		lcd_write_reg_data(0xBE01,0x64);
00158e  2164              MOVS     r1,#0x64
001590  f64b6001          MOV      r0,#0xbe01
001594  f7fffffe          BL       lcd_write_reg_data
;;;1364   		//Gamma Setting
;;;1365   		lcd_write_reg_data(0xD100,0x00);
001598  2100              MOVS     r1,#0
00159a  f44f4051          MOV      r0,#0xd100
00159e  f7fffffe          BL       lcd_write_reg_data
;;;1366   		lcd_write_reg_data(0xD101,0x33);
0015a2  2133              MOVS     r1,#0x33
0015a4  f24d1001          MOV      r0,#0xd101
0015a8  f7fffffe          BL       lcd_write_reg_data
;;;1367   		lcd_write_reg_data(0xD102,0x00);
0015ac  2100              MOVS     r1,#0
0015ae  f24d1002          MOV      r0,#0xd102
0015b2  f7fffffe          BL       lcd_write_reg_data
;;;1368   		lcd_write_reg_data(0xD103,0x34);
0015b6  2134              MOVS     r1,#0x34
0015b8  f24d1003          MOV      r0,#0xd103
0015bc  f7fffffe          BL       lcd_write_reg_data
;;;1369   		lcd_write_reg_data(0xD104,0x00);
0015c0  2100              MOVS     r1,#0
0015c2  f24d1004          MOV      r0,#0xd104
0015c6  f7fffffe          BL       lcd_write_reg_data
;;;1370   		lcd_write_reg_data(0xD105,0x3A);
0015ca  213a              MOVS     r1,#0x3a
0015cc  f24d1005          MOV      r0,#0xd105
0015d0  f7fffffe          BL       lcd_write_reg_data
;;;1371   		lcd_write_reg_data(0xD106,0x00);
0015d4  2100              MOVS     r1,#0
0015d6  f24d1006          MOV      r0,#0xd106
0015da  f7fffffe          BL       lcd_write_reg_data
;;;1372   		lcd_write_reg_data(0xD107,0x4A);
0015de  214a              MOVS     r1,#0x4a
0015e0  f24d1007          MOV      r0,#0xd107
0015e4  f7fffffe          BL       lcd_write_reg_data
;;;1373   		lcd_write_reg_data(0xD108,0x00);
0015e8  2100              MOVS     r1,#0
0015ea  f24d1008          MOV      r0,#0xd108
0015ee  f7fffffe          BL       lcd_write_reg_data
;;;1374   		lcd_write_reg_data(0xD109,0x5C);
0015f2  215c              MOVS     r1,#0x5c
0015f4  f24d1009          MOV      r0,#0xd109
0015f8  f7fffffe          BL       lcd_write_reg_data
;;;1375   		lcd_write_reg_data(0xD10A,0x00);
0015fc  2100              MOVS     r1,#0
0015fe  f24d100a          MOV      r0,#0xd10a
001602  f7fffffe          BL       lcd_write_reg_data
;;;1376   		lcd_write_reg_data(0xD10B,0x81);
001606  2181              MOVS     r1,#0x81
001608  f24d100b          MOV      r0,#0xd10b
00160c  f7fffffe          BL       lcd_write_reg_data
;;;1377   		lcd_write_reg_data(0xD10C,0x00);
001610  2100              MOVS     r1,#0
001612  f24d100c          MOV      r0,#0xd10c
001616  f7fffffe          BL       lcd_write_reg_data
;;;1378   		lcd_write_reg_data(0xD10D,0xA6);
00161a  21a6              MOVS     r1,#0xa6
00161c  f24d100d          MOV      r0,#0xd10d
001620  f7fffffe          BL       lcd_write_reg_data
;;;1379   		lcd_write_reg_data(0xD10E,0x00);
001624  2100              MOVS     r1,#0
001626  f24d100e          MOV      r0,#0xd10e
00162a  f7fffffe          BL       lcd_write_reg_data
;;;1380   		lcd_write_reg_data(0xD10F,0xE5);
00162e  21e5              MOVS     r1,#0xe5
001630  f24d100f          MOV      r0,#0xd10f
001634  f7fffffe          BL       lcd_write_reg_data
;;;1381   		lcd_write_reg_data(0xD110,0x01);
001638  2101              MOVS     r1,#1
00163a  f24d1010          MOV      r0,#0xd110
00163e  f7fffffe          BL       lcd_write_reg_data
;;;1382   		lcd_write_reg_data(0xD111,0x13);
001642  2113              MOVS     r1,#0x13
001644  f24d1011          MOV      r0,#0xd111
001648  f7fffffe          BL       lcd_write_reg_data
;;;1383   		lcd_write_reg_data(0xD112,0x01);
00164c  2101              MOVS     r1,#1
00164e  f24d1012          MOV      r0,#0xd112
001652  f7fffffe          BL       lcd_write_reg_data
;;;1384   		lcd_write_reg_data(0xD113,0x54);
001656  2154              MOVS     r1,#0x54
001658  f24d1013          MOV      r0,#0xd113
00165c  f7fffffe          BL       lcd_write_reg_data
;;;1385   		lcd_write_reg_data(0xD114,0x01);
001660  2101              MOVS     r1,#1
001662  f24d1014          MOV      r0,#0xd114
001666  f7fffffe          BL       lcd_write_reg_data
;;;1386   		lcd_write_reg_data(0xD115,0x82);
00166a  2182              MOVS     r1,#0x82
00166c  f24d1015          MOV      r0,#0xd115
001670  f7fffffe          BL       lcd_write_reg_data
;;;1387   		lcd_write_reg_data(0xD116,0x01);
001674  2101              MOVS     r1,#1
001676  f24d1016          MOV      r0,#0xd116
00167a  f7fffffe          BL       lcd_write_reg_data
;;;1388   		lcd_write_reg_data(0xD117,0xCA);
00167e  21ca              MOVS     r1,#0xca
001680  f24d1017          MOV      r0,#0xd117
001684  f7fffffe          BL       lcd_write_reg_data
;;;1389   		lcd_write_reg_data(0xD118,0x02);
001688  2102              MOVS     r1,#2
00168a  f24d1018          MOV      r0,#0xd118
00168e  f7fffffe          BL       lcd_write_reg_data
;;;1390   		lcd_write_reg_data(0xD119,0x00);
001692  2100              MOVS     r1,#0
001694  f24d1019          MOV      r0,#0xd119
001698  f7fffffe          BL       lcd_write_reg_data
;;;1391   		lcd_write_reg_data(0xD11A,0x02);
00169c  2102              MOVS     r1,#2
00169e  f24d101a          MOV      r0,#0xd11a
0016a2  f7fffffe          BL       lcd_write_reg_data
;;;1392   		lcd_write_reg_data(0xD11B,0x01);
0016a6  2101              MOVS     r1,#1
0016a8  f24d101b          MOV      r0,#0xd11b
0016ac  f7fffffe          BL       lcd_write_reg_data
;;;1393   		lcd_write_reg_data(0xD11C,0x02);
0016b0  2102              MOVS     r1,#2
0016b2  f24d101c          MOV      r0,#0xd11c
0016b6  f7fffffe          BL       lcd_write_reg_data
;;;1394   		lcd_write_reg_data(0xD11D,0x34);
0016ba  2134              MOVS     r1,#0x34
0016bc  f24d101d          MOV      r0,#0xd11d
0016c0  f7fffffe          BL       lcd_write_reg_data
;;;1395   		lcd_write_reg_data(0xD11E,0x02);
0016c4  2102              MOVS     r1,#2
0016c6  f24d101e          MOV      r0,#0xd11e
0016ca  f7fffffe          BL       lcd_write_reg_data
;;;1396   		lcd_write_reg_data(0xD11F,0x67);
0016ce  2167              MOVS     r1,#0x67
0016d0  f24d101f          MOV      r0,#0xd11f
0016d4  f7fffffe          BL       lcd_write_reg_data
;;;1397   		lcd_write_reg_data(0xD120,0x02);
0016d8  2102              MOVS     r1,#2
0016da  f24d1020          MOV      r0,#0xd120
0016de  f7fffffe          BL       lcd_write_reg_data
;;;1398   		lcd_write_reg_data(0xD121,0x84);
0016e2  2184              MOVS     r1,#0x84
0016e4  f24d1021          MOV      r0,#0xd121
0016e8  f7fffffe          BL       lcd_write_reg_data
;;;1399   		lcd_write_reg_data(0xD122,0x02);
0016ec  2102              MOVS     r1,#2
0016ee  f24d1022          MOV      r0,#0xd122
0016f2  f7fffffe          BL       lcd_write_reg_data
;;;1400   		lcd_write_reg_data(0xD123,0xA4);
0016f6  21a4              MOVS     r1,#0xa4
0016f8  f24d1023          MOV      r0,#0xd123
0016fc  f7fffffe          BL       lcd_write_reg_data
;;;1401   		lcd_write_reg_data(0xD124,0x02);
001700  2102              MOVS     r1,#2
001702  f24d1024          MOV      r0,#0xd124
001706  f7fffffe          BL       lcd_write_reg_data
;;;1402   		lcd_write_reg_data(0xD125,0xB7);
00170a  21b7              MOVS     r1,#0xb7
00170c  f24d1025          MOV      r0,#0xd125
001710  f7fffffe          BL       lcd_write_reg_data
;;;1403   		lcd_write_reg_data(0xD126,0x02);
001714  2102              MOVS     r1,#2
001716  f24d1026          MOV      r0,#0xd126
00171a  f7fffffe          BL       lcd_write_reg_data
;;;1404   		lcd_write_reg_data(0xD127,0xCF);
00171e  21cf              MOVS     r1,#0xcf
001720  f24d1027          MOV      r0,#0xd127
001724  f7fffffe          BL       lcd_write_reg_data
;;;1405   		lcd_write_reg_data(0xD128,0x02);
001728  2102              MOVS     r1,#2
00172a  f24d1028          MOV      r0,#0xd128
00172e  f7fffffe          BL       lcd_write_reg_data
;;;1406   		lcd_write_reg_data(0xD129,0xDE);
001732  21de              MOVS     r1,#0xde
001734  f24d1029          MOV      r0,#0xd129
001738  f7fffffe          BL       lcd_write_reg_data
;;;1407   		lcd_write_reg_data(0xD12A,0x02);
00173c  2102              MOVS     r1,#2
00173e  f24d102a          MOV      r0,#0xd12a
001742  f7fffffe          BL       lcd_write_reg_data
;;;1408   		lcd_write_reg_data(0xD12B,0xF2);
001746  21f2              MOVS     r1,#0xf2
001748  f24d102b          MOV      r0,#0xd12b
00174c  f7fffffe          BL       lcd_write_reg_data
;;;1409   		lcd_write_reg_data(0xD12C,0x02);
001750  2102              MOVS     r1,#2
001752  f24d102c          MOV      r0,#0xd12c
001756  f7fffffe          BL       lcd_write_reg_data
;;;1410   		lcd_write_reg_data(0xD12D,0xFE);
00175a  21fe              MOVS     r1,#0xfe
00175c  f24d102d          MOV      r0,#0xd12d
001760  f7fffffe          BL       lcd_write_reg_data
;;;1411   		lcd_write_reg_data(0xD12E,0x03);
001764  2103              MOVS     r1,#3
001766  f24d102e          MOV      r0,#0xd12e
00176a  f7fffffe          BL       lcd_write_reg_data
;;;1412   		lcd_write_reg_data(0xD12F,0x10);
00176e  2110              MOVS     r1,#0x10
001770  f24d102f          MOV      r0,#0xd12f
001774  f7fffffe          BL       lcd_write_reg_data
;;;1413   		lcd_write_reg_data(0xD130,0x03);
001778  2103              MOVS     r1,#3
00177a  f24d1030          MOV      r0,#0xd130
00177e  f7fffffe          BL       lcd_write_reg_data
;;;1414   		lcd_write_reg_data(0xD131,0x33);
001782  2133              MOVS     r1,#0x33
001784  f24d1031          MOV      r0,#0xd131
001788  f7fffffe          BL       lcd_write_reg_data
;;;1415   		lcd_write_reg_data(0xD132,0x03);
00178c  2103              MOVS     r1,#3
00178e  f24d1032          MOV      r0,#0xd132
001792  f7fffffe          BL       lcd_write_reg_data
;;;1416   		lcd_write_reg_data(0xD133,0x6D);
001796  216d              MOVS     r1,#0x6d
001798  f24d1033          MOV      r0,#0xd133
00179c  f7fffffe          BL       lcd_write_reg_data
;;;1417   		lcd_write_reg_data(0xD200,0x00);
0017a0  2100              MOVS     r1,#0
0017a2  f44f4052          MOV      r0,#0xd200
0017a6  f7fffffe          BL       lcd_write_reg_data
;;;1418   		lcd_write_reg_data(0xD201,0x33);
0017aa  2133              MOVS     r1,#0x33
0017ac  f24d2001          MOV      r0,#0xd201
0017b0  f7fffffe          BL       lcd_write_reg_data
;;;1419   		lcd_write_reg_data(0xD202,0x00);
0017b4  2100              MOVS     r1,#0
0017b6  f24d2002          MOV      r0,#0xd202
0017ba  f7fffffe          BL       lcd_write_reg_data
;;;1420   		lcd_write_reg_data(0xD203,0x34);
0017be  2134              MOVS     r1,#0x34
0017c0  f24d2003          MOV      r0,#0xd203
0017c4  f7fffffe          BL       lcd_write_reg_data
;;;1421   		lcd_write_reg_data(0xD204,0x00);
0017c8  2100              MOVS     r1,#0
0017ca  f24d2004          MOV      r0,#0xd204
0017ce  f7fffffe          BL       lcd_write_reg_data
;;;1422   		lcd_write_reg_data(0xD205,0x3A);
0017d2  213a              MOVS     r1,#0x3a
0017d4  f24d2005          MOV      r0,#0xd205
0017d8  f7fffffe          BL       lcd_write_reg_data
;;;1423   		lcd_write_reg_data(0xD206,0x00);
0017dc  2100              MOVS     r1,#0
0017de  f24d2006          MOV      r0,#0xd206
0017e2  f7fffffe          BL       lcd_write_reg_data
;;;1424   		lcd_write_reg_data(0xD207,0x4A);
0017e6  214a              MOVS     r1,#0x4a
0017e8  f24d2007          MOV      r0,#0xd207
0017ec  f7fffffe          BL       lcd_write_reg_data
;;;1425   		lcd_write_reg_data(0xD208,0x00);
0017f0  2100              MOVS     r1,#0
0017f2  f24d2008          MOV      r0,#0xd208
0017f6  f7fffffe          BL       lcd_write_reg_data
;;;1426   		lcd_write_reg_data(0xD209,0x5C);
0017fa  215c              MOVS     r1,#0x5c
0017fc  f24d2009          MOV      r0,#0xd209
001800  f7fffffe          BL       lcd_write_reg_data
;;;1427   		lcd_write_reg_data(0xD20A,0x00);
001804  2100              MOVS     r1,#0
001806  f24d200a          MOV      r0,#0xd20a
00180a  f7fffffe          BL       lcd_write_reg_data
;;;1428   
;;;1429   		lcd_write_reg_data(0xD20B,0x81);
00180e  2181              MOVS     r1,#0x81
001810  f24d200b          MOV      r0,#0xd20b
001814  f7fffffe          BL       lcd_write_reg_data
;;;1430   		lcd_write_reg_data(0xD20C,0x00);
001818  2100              MOVS     r1,#0
00181a  f24d200c          MOV      r0,#0xd20c
00181e  f7fffffe          BL       lcd_write_reg_data
;;;1431   		lcd_write_reg_data(0xD20D,0xA6);
001822  21a6              MOVS     r1,#0xa6
001824  f24d200d          MOV      r0,#0xd20d
001828  f7fffffe          BL       lcd_write_reg_data
;;;1432   		lcd_write_reg_data(0xD20E,0x00);
00182c  2100              MOVS     r1,#0
00182e  f24d200e          MOV      r0,#0xd20e
001832  f7fffffe          BL       lcd_write_reg_data
;;;1433   		lcd_write_reg_data(0xD20F,0xE5);
001836  21e5              MOVS     r1,#0xe5
001838  f24d200f          MOV      r0,#0xd20f
00183c  f7fffffe          BL       lcd_write_reg_data
;;;1434   		lcd_write_reg_data(0xD210,0x01);
001840  2101              MOVS     r1,#1
001842  f24d2010          MOV      r0,#0xd210
001846  f7fffffe          BL       lcd_write_reg_data
;;;1435   		lcd_write_reg_data(0xD211,0x13);
00184a  2113              MOVS     r1,#0x13
00184c  f24d2011          MOV      r0,#0xd211
001850  f7fffffe          BL       lcd_write_reg_data
;;;1436   		lcd_write_reg_data(0xD212,0x01);
001854  2101              MOVS     r1,#1
001856  f24d2012          MOV      r0,#0xd212
00185a  f7fffffe          BL       lcd_write_reg_data
;;;1437   		lcd_write_reg_data(0xD213,0x54);
00185e  2154              MOVS     r1,#0x54
001860  f24d2013          MOV      r0,#0xd213
001864  f7fffffe          BL       lcd_write_reg_data
;;;1438   		lcd_write_reg_data(0xD214,0x01);
001868  2101              MOVS     r1,#1
00186a  f24d2014          MOV      r0,#0xd214
00186e  f7fffffe          BL       lcd_write_reg_data
;;;1439   		lcd_write_reg_data(0xD215,0x82);
001872  2182              MOVS     r1,#0x82
001874  f24d2015          MOV      r0,#0xd215
001878  f7fffffe          BL       lcd_write_reg_data
;;;1440   		lcd_write_reg_data(0xD216,0x01);
00187c  2101              MOVS     r1,#1
00187e  f24d2016          MOV      r0,#0xd216
001882  f7fffffe          BL       lcd_write_reg_data
;;;1441   		lcd_write_reg_data(0xD217,0xCA);
001886  21ca              MOVS     r1,#0xca
001888  f24d2017          MOV      r0,#0xd217
00188c  f7fffffe          BL       lcd_write_reg_data
;;;1442   		lcd_write_reg_data(0xD218,0x02);
001890  2102              MOVS     r1,#2
001892  f24d2018          MOV      r0,#0xd218
001896  f7fffffe          BL       lcd_write_reg_data
;;;1443   		lcd_write_reg_data(0xD219,0x00);
00189a  2100              MOVS     r1,#0
00189c  f24d2019          MOV      r0,#0xd219
0018a0  f7fffffe          BL       lcd_write_reg_data
;;;1444   		lcd_write_reg_data(0xD21A,0x02);
0018a4  2102              MOVS     r1,#2
0018a6  f24d201a          MOV      r0,#0xd21a
0018aa  f7fffffe          BL       lcd_write_reg_data
;;;1445   		lcd_write_reg_data(0xD21B,0x01);
0018ae  2101              MOVS     r1,#1
0018b0  f24d201b          MOV      r0,#0xd21b
0018b4  f7fffffe          BL       lcd_write_reg_data
;;;1446   		lcd_write_reg_data(0xD21C,0x02);
0018b8  2102              MOVS     r1,#2
0018ba  f24d201c          MOV      r0,#0xd21c
0018be  f7fffffe          BL       lcd_write_reg_data
;;;1447   		lcd_write_reg_data(0xD21D,0x34);
0018c2  2134              MOVS     r1,#0x34
0018c4  f24d201d          MOV      r0,#0xd21d
0018c8  f7fffffe          BL       lcd_write_reg_data
;;;1448   		lcd_write_reg_data(0xD21E,0x02);
0018cc  2102              MOVS     r1,#2
0018ce  f24d201e          MOV      r0,#0xd21e
0018d2  f7fffffe          BL       lcd_write_reg_data
;;;1449   		lcd_write_reg_data(0xD21F,0x67);
0018d6  2167              MOVS     r1,#0x67
0018d8  f24d201f          MOV      r0,#0xd21f
0018dc  f7fffffe          BL       lcd_write_reg_data
;;;1450   		lcd_write_reg_data(0xD220,0x02);
0018e0  2102              MOVS     r1,#2
0018e2  f24d2020          MOV      r0,#0xd220
0018e6  f7fffffe          BL       lcd_write_reg_data
;;;1451   		lcd_write_reg_data(0xD221,0x84);
0018ea  2184              MOVS     r1,#0x84
0018ec  f24d2021          MOV      r0,#0xd221
0018f0  f7fffffe          BL       lcd_write_reg_data
;;;1452   		lcd_write_reg_data(0xD222,0x02);
0018f4  2102              MOVS     r1,#2
0018f6  f24d2022          MOV      r0,#0xd222
0018fa  f7fffffe          BL       lcd_write_reg_data
;;;1453   		lcd_write_reg_data(0xD223,0xA4);
0018fe  21a4              MOVS     r1,#0xa4
001900  f24d2023          MOV      r0,#0xd223
001904  f7fffffe          BL       lcd_write_reg_data
;;;1454   		lcd_write_reg_data(0xD224,0x02);
001908  2102              MOVS     r1,#2
00190a  f24d2024          MOV      r0,#0xd224
00190e  f7fffffe          BL       lcd_write_reg_data
;;;1455   		lcd_write_reg_data(0xD225,0xB7);
001912  21b7              MOVS     r1,#0xb7
001914  f24d2025          MOV      r0,#0xd225
001918  f7fffffe          BL       lcd_write_reg_data
;;;1456   		lcd_write_reg_data(0xD226,0x02);
00191c  2102              MOVS     r1,#2
00191e  f24d2026          MOV      r0,#0xd226
001922  f7fffffe          BL       lcd_write_reg_data
;;;1457   		lcd_write_reg_data(0xD227,0xCF);
001926  21cf              MOVS     r1,#0xcf
001928  f24d2027          MOV      r0,#0xd227
00192c  f7fffffe          BL       lcd_write_reg_data
;;;1458   		lcd_write_reg_data(0xD228,0x02);
001930  2102              MOVS     r1,#2
001932  f24d2028          MOV      r0,#0xd228
001936  f7fffffe          BL       lcd_write_reg_data
;;;1459   		lcd_write_reg_data(0xD229,0xDE);
00193a  21de              MOVS     r1,#0xde
00193c  f24d2029          MOV      r0,#0xd229
001940  f7fffffe          BL       lcd_write_reg_data
;;;1460   		lcd_write_reg_data(0xD22A,0x02);
001944  2102              MOVS     r1,#2
001946  f24d202a          MOV      r0,#0xd22a
00194a  f7fffffe          BL       lcd_write_reg_data
;;;1461   		lcd_write_reg_data(0xD22B,0xF2);
00194e  21f2              MOVS     r1,#0xf2
001950  f24d202b          MOV      r0,#0xd22b
001954  f7fffffe          BL       lcd_write_reg_data
;;;1462   		lcd_write_reg_data(0xD22C,0x02);
001958  2102              MOVS     r1,#2
00195a  f24d202c          MOV      r0,#0xd22c
00195e  f7fffffe          BL       lcd_write_reg_data
;;;1463   		lcd_write_reg_data(0xD22D,0xFE);
001962  21fe              MOVS     r1,#0xfe
001964  f24d202d          MOV      r0,#0xd22d
001968  f7fffffe          BL       lcd_write_reg_data
;;;1464   		lcd_write_reg_data(0xD22E,0x03);
00196c  2103              MOVS     r1,#3
00196e  f24d202e          MOV      r0,#0xd22e
001972  f7fffffe          BL       lcd_write_reg_data
;;;1465   		lcd_write_reg_data(0xD22F,0x10);
001976  2110              MOVS     r1,#0x10
001978  f24d202f          MOV      r0,#0xd22f
00197c  f7fffffe          BL       lcd_write_reg_data
;;;1466   		lcd_write_reg_data(0xD230,0x03);
001980  2103              MOVS     r1,#3
001982  f24d2030          MOV      r0,#0xd230
001986  f7fffffe          BL       lcd_write_reg_data
;;;1467   		lcd_write_reg_data(0xD231,0x33);
00198a  2133              MOVS     r1,#0x33
00198c  f24d2031          MOV      r0,#0xd231
001990  f7fffffe          BL       lcd_write_reg_data
;;;1468   		lcd_write_reg_data(0xD232,0x03);
001994  2103              MOVS     r1,#3
001996  f24d2032          MOV      r0,#0xd232
00199a  f7fffffe          BL       lcd_write_reg_data
;;;1469   		lcd_write_reg_data(0xD233,0x6D);
00199e  216d              MOVS     r1,#0x6d
0019a0  f24d2033          MOV      r0,#0xd233
0019a4  f7fffffe          BL       lcd_write_reg_data
;;;1470   		lcd_write_reg_data(0xD300,0x00);
0019a8  2100              MOVS     r1,#0
0019aa  f44f4053          MOV      r0,#0xd300
0019ae  f7fffffe          BL       lcd_write_reg_data
;;;1471   		lcd_write_reg_data(0xD301,0x33);
0019b2  2133              MOVS     r1,#0x33
0019b4  f24d3001          MOV      r0,#0xd301
0019b8  f7fffffe          BL       lcd_write_reg_data
;;;1472   		lcd_write_reg_data(0xD302,0x00);
0019bc  2100              MOVS     r1,#0
0019be  f24d3002          MOV      r0,#0xd302
0019c2  f7fffffe          BL       lcd_write_reg_data
;;;1473   		lcd_write_reg_data(0xD303,0x34);
0019c6  2134              MOVS     r1,#0x34
0019c8  f24d3003          MOV      r0,#0xd303
0019cc  f7fffffe          BL       lcd_write_reg_data
;;;1474   		lcd_write_reg_data(0xD304,0x00);
0019d0  2100              MOVS     r1,#0
0019d2  f24d3004          MOV      r0,#0xd304
0019d6  f7fffffe          BL       lcd_write_reg_data
;;;1475   		lcd_write_reg_data(0xD305,0x3A);
0019da  213a              MOVS     r1,#0x3a
0019dc  f24d3005          MOV      r0,#0xd305
0019e0  f7fffffe          BL       lcd_write_reg_data
;;;1476   		lcd_write_reg_data(0xD306,0x00);
0019e4  2100              MOVS     r1,#0
0019e6  f24d3006          MOV      r0,#0xd306
0019ea  f7fffffe          BL       lcd_write_reg_data
;;;1477   		lcd_write_reg_data(0xD307,0x4A);
0019ee  214a              MOVS     r1,#0x4a
0019f0  f24d3007          MOV      r0,#0xd307
0019f4  f7fffffe          BL       lcd_write_reg_data
;;;1478   		lcd_write_reg_data(0xD308,0x00);
0019f8  2100              MOVS     r1,#0
0019fa  f24d3008          MOV      r0,#0xd308
0019fe  f7fffffe          BL       lcd_write_reg_data
;;;1479   		lcd_write_reg_data(0xD309,0x5C);
001a02  215c              MOVS     r1,#0x5c
001a04  f24d3009          MOV      r0,#0xd309
001a08  f7fffffe          BL       lcd_write_reg_data
;;;1480   		lcd_write_reg_data(0xD30A,0x00);
001a0c  2100              MOVS     r1,#0
001a0e  f24d300a          MOV      r0,#0xd30a
001a12  f7fffffe          BL       lcd_write_reg_data
;;;1481   
;;;1482   		lcd_write_reg_data(0xD30B,0x81);
001a16  2181              MOVS     r1,#0x81
001a18  f24d300b          MOV      r0,#0xd30b
001a1c  f7fffffe          BL       lcd_write_reg_data
;;;1483   		lcd_write_reg_data(0xD30C,0x00);
001a20  2100              MOVS     r1,#0
001a22  f24d300c          MOV      r0,#0xd30c
001a26  f7fffffe          BL       lcd_write_reg_data
;;;1484   		lcd_write_reg_data(0xD30D,0xA6);
001a2a  21a6              MOVS     r1,#0xa6
001a2c  f24d300d          MOV      r0,#0xd30d
001a30  f7fffffe          BL       lcd_write_reg_data
;;;1485   		lcd_write_reg_data(0xD30E,0x00);
001a34  2100              MOVS     r1,#0
001a36  f24d300e          MOV      r0,#0xd30e
001a3a  f7fffffe          BL       lcd_write_reg_data
;;;1486   		lcd_write_reg_data(0xD30F,0xE5);
001a3e  21e5              MOVS     r1,#0xe5
001a40  f24d300f          MOV      r0,#0xd30f
001a44  f7fffffe          BL       lcd_write_reg_data
;;;1487   		lcd_write_reg_data(0xD310,0x01);
001a48  2101              MOVS     r1,#1
001a4a  f24d3010          MOV      r0,#0xd310
001a4e  f7fffffe          BL       lcd_write_reg_data
;;;1488   		lcd_write_reg_data(0xD311,0x13);
001a52  2113              MOVS     r1,#0x13
001a54  f24d3011          MOV      r0,#0xd311
001a58  f7fffffe          BL       lcd_write_reg_data
;;;1489   		lcd_write_reg_data(0xD312,0x01);
001a5c  2101              MOVS     r1,#1
001a5e  f24d3012          MOV      r0,#0xd312
001a62  f7fffffe          BL       lcd_write_reg_data
;;;1490   		lcd_write_reg_data(0xD313,0x54);
001a66  2154              MOVS     r1,#0x54
001a68  f24d3013          MOV      r0,#0xd313
001a6c  f7fffffe          BL       lcd_write_reg_data
;;;1491   		lcd_write_reg_data(0xD314,0x01);
001a70  2101              MOVS     r1,#1
001a72  f24d3014          MOV      r0,#0xd314
001a76  f7fffffe          BL       lcd_write_reg_data
;;;1492   		lcd_write_reg_data(0xD315,0x82);
001a7a  2182              MOVS     r1,#0x82
001a7c  f24d3015          MOV      r0,#0xd315
001a80  f7fffffe          BL       lcd_write_reg_data
;;;1493   		lcd_write_reg_data(0xD316,0x01);
001a84  2101              MOVS     r1,#1
001a86  f24d3016          MOV      r0,#0xd316
001a8a  f7fffffe          BL       lcd_write_reg_data
;;;1494   		lcd_write_reg_data(0xD317,0xCA);
001a8e  21ca              MOVS     r1,#0xca
001a90  f24d3017          MOV      r0,#0xd317
001a94  f7fffffe          BL       lcd_write_reg_data
;;;1495   		lcd_write_reg_data(0xD318,0x02);
001a98  2102              MOVS     r1,#2
001a9a  f24d3018          MOV      r0,#0xd318
001a9e  f7fffffe          BL       lcd_write_reg_data
;;;1496   		lcd_write_reg_data(0xD319,0x00);
001aa2  2100              MOVS     r1,#0
001aa4  f24d3019          MOV      r0,#0xd319
001aa8  f7fffffe          BL       lcd_write_reg_data
;;;1497   		lcd_write_reg_data(0xD31A,0x02);
001aac  2102              MOVS     r1,#2
001aae  f24d301a          MOV      r0,#0xd31a
001ab2  f7fffffe          BL       lcd_write_reg_data
;;;1498   		lcd_write_reg_data(0xD31B,0x01);
001ab6  2101              MOVS     r1,#1
001ab8  f24d301b          MOV      r0,#0xd31b
001abc  f7fffffe          BL       lcd_write_reg_data
;;;1499   		lcd_write_reg_data(0xD31C,0x02);
001ac0  2102              MOVS     r1,#2
001ac2  f24d301c          MOV      r0,#0xd31c
001ac6  f7fffffe          BL       lcd_write_reg_data
;;;1500   		lcd_write_reg_data(0xD31D,0x34);
001aca  2134              MOVS     r1,#0x34
001acc  f24d301d          MOV      r0,#0xd31d
001ad0  f7fffffe          BL       lcd_write_reg_data
;;;1501   		lcd_write_reg_data(0xD31E,0x02);
001ad4  2102              MOVS     r1,#2
001ad6  f24d301e          MOV      r0,#0xd31e
001ada  f7fffffe          BL       lcd_write_reg_data
;;;1502   		lcd_write_reg_data(0xD31F,0x67);
001ade  2167              MOVS     r1,#0x67
001ae0  f24d301f          MOV      r0,#0xd31f
001ae4  f7fffffe          BL       lcd_write_reg_data
;;;1503   		lcd_write_reg_data(0xD320,0x02);
001ae8  2102              MOVS     r1,#2
001aea  f24d3020          MOV      r0,#0xd320
001aee  f7fffffe          BL       lcd_write_reg_data
;;;1504   		lcd_write_reg_data(0xD321,0x84);
001af2  2184              MOVS     r1,#0x84
001af4  f24d3021          MOV      r0,#0xd321
001af8  f7fffffe          BL       lcd_write_reg_data
;;;1505   		lcd_write_reg_data(0xD322,0x02);
001afc  2102              MOVS     r1,#2
001afe  f24d3022          MOV      r0,#0xd322
001b02  f7fffffe          BL       lcd_write_reg_data
;;;1506   		lcd_write_reg_data(0xD323,0xA4);
001b06  21a4              MOVS     r1,#0xa4
001b08  f24d3023          MOV      r0,#0xd323
001b0c  f7fffffe          BL       lcd_write_reg_data
;;;1507   		lcd_write_reg_data(0xD324,0x02);
001b10  2102              MOVS     r1,#2
001b12  f24d3024          MOV      r0,#0xd324
001b16  f7fffffe          BL       lcd_write_reg_data
;;;1508   		lcd_write_reg_data(0xD325,0xB7);
001b1a  21b7              MOVS     r1,#0xb7
001b1c  f24d3025          MOV      r0,#0xd325
001b20  f7fffffe          BL       lcd_write_reg_data
;;;1509   		lcd_write_reg_data(0xD326,0x02);
001b24  2102              MOVS     r1,#2
001b26  f24d3026          MOV      r0,#0xd326
001b2a  f7fffffe          BL       lcd_write_reg_data
;;;1510   		lcd_write_reg_data(0xD327,0xCF);
001b2e  21cf              MOVS     r1,#0xcf
001b30  f24d3027          MOV      r0,#0xd327
001b34  f7fffffe          BL       lcd_write_reg_data
;;;1511   		lcd_write_reg_data(0xD328,0x02);
001b38  2102              MOVS     r1,#2
001b3a  f24d3028          MOV      r0,#0xd328
001b3e  f7fffffe          BL       lcd_write_reg_data
;;;1512   		lcd_write_reg_data(0xD329,0xDE);
001b42  21de              MOVS     r1,#0xde
001b44  f24d3029          MOV      r0,#0xd329
001b48  f7fffffe          BL       lcd_write_reg_data
;;;1513   		lcd_write_reg_data(0xD32A,0x02);
001b4c  2102              MOVS     r1,#2
001b4e  f24d302a          MOV      r0,#0xd32a
001b52  f7fffffe          BL       lcd_write_reg_data
;;;1514   		lcd_write_reg_data(0xD32B,0xF2);
001b56  21f2              MOVS     r1,#0xf2
001b58  f24d302b          MOV      r0,#0xd32b
001b5c  f7fffffe          BL       lcd_write_reg_data
;;;1515   		lcd_write_reg_data(0xD32C,0x02);
001b60  2102              MOVS     r1,#2
001b62  f24d302c          MOV      r0,#0xd32c
001b66  f7fffffe          BL       lcd_write_reg_data
;;;1516   		lcd_write_reg_data(0xD32D,0xFE);
001b6a  21fe              MOVS     r1,#0xfe
001b6c  f24d302d          MOV      r0,#0xd32d
001b70  f7fffffe          BL       lcd_write_reg_data
;;;1517   		lcd_write_reg_data(0xD32E,0x03);
001b74  2103              MOVS     r1,#3
001b76  f24d302e          MOV      r0,#0xd32e
001b7a  f7fffffe          BL       lcd_write_reg_data
;;;1518   		lcd_write_reg_data(0xD32F,0x10);
001b7e  2110              MOVS     r1,#0x10
001b80  f24d302f          MOV      r0,#0xd32f
001b84  f7fffffe          BL       lcd_write_reg_data
;;;1519   		lcd_write_reg_data(0xD330,0x03);
001b88  2103              MOVS     r1,#3
001b8a  f24d3030          MOV      r0,#0xd330
001b8e  f7fffffe          BL       lcd_write_reg_data
;;;1520   		lcd_write_reg_data(0xD331,0x33);
001b92  2133              MOVS     r1,#0x33
001b94  f24d3031          MOV      r0,#0xd331
001b98  f7fffffe          BL       lcd_write_reg_data
;;;1521   		lcd_write_reg_data(0xD332,0x03);
001b9c  2103              MOVS     r1,#3
001b9e  f24d3032          MOV      r0,#0xd332
001ba2  f7fffffe          BL       lcd_write_reg_data
;;;1522   		lcd_write_reg_data(0xD333,0x6D);
001ba6  216d              MOVS     r1,#0x6d
001ba8  f24d3033          MOV      r0,#0xd333
001bac  f7fffffe          BL       lcd_write_reg_data
;;;1523   		lcd_write_reg_data(0xD400,0x00);
001bb0  2100              MOVS     r1,#0
001bb2  f44f4054          MOV      r0,#0xd400
001bb6  f7fffffe          BL       lcd_write_reg_data
;;;1524   		lcd_write_reg_data(0xD401,0x33);
001bba  2133              MOVS     r1,#0x33
001bbc  f24d4001          MOV      r0,#0xd401
001bc0  f7fffffe          BL       lcd_write_reg_data
;;;1525   		lcd_write_reg_data(0xD402,0x00);
001bc4  2100              MOVS     r1,#0
001bc6  e000              B        |L13.7114|
                  |L13.7112|
001bc8  e382              B        |L13.8912|
                  |L13.7114|
001bca  f24d4002          MOV      r0,#0xd402
001bce  f7fffffe          BL       lcd_write_reg_data
;;;1526   		lcd_write_reg_data(0xD403,0x34);
001bd2  2134              MOVS     r1,#0x34
001bd4  f24d4003          MOV      r0,#0xd403
001bd8  f7fffffe          BL       lcd_write_reg_data
;;;1527   		lcd_write_reg_data(0xD404,0x00);
001bdc  2100              MOVS     r1,#0
001bde  f24d4004          MOV      r0,#0xd404
001be2  f7fffffe          BL       lcd_write_reg_data
;;;1528   		lcd_write_reg_data(0xD405,0x3A);
001be6  213a              MOVS     r1,#0x3a
001be8  f24d4005          MOV      r0,#0xd405
001bec  f7fffffe          BL       lcd_write_reg_data
;;;1529   		lcd_write_reg_data(0xD406,0x00);
001bf0  2100              MOVS     r1,#0
001bf2  f24d4006          MOV      r0,#0xd406
001bf6  f7fffffe          BL       lcd_write_reg_data
;;;1530   		lcd_write_reg_data(0xD407,0x4A);
001bfa  214a              MOVS     r1,#0x4a
001bfc  f24d4007          MOV      r0,#0xd407
001c00  f7fffffe          BL       lcd_write_reg_data
;;;1531   		lcd_write_reg_data(0xD408,0x00);
001c04  2100              MOVS     r1,#0
001c06  f24d4008          MOV      r0,#0xd408
001c0a  f7fffffe          BL       lcd_write_reg_data
;;;1532   		lcd_write_reg_data(0xD409,0x5C);
001c0e  215c              MOVS     r1,#0x5c
001c10  f24d4009          MOV      r0,#0xd409
001c14  f7fffffe          BL       lcd_write_reg_data
;;;1533   		lcd_write_reg_data(0xD40A,0x00);
001c18  2100              MOVS     r1,#0
001c1a  f24d400a          MOV      r0,#0xd40a
001c1e  f7fffffe          BL       lcd_write_reg_data
;;;1534   		lcd_write_reg_data(0xD40B,0x81);
001c22  2181              MOVS     r1,#0x81
001c24  f24d400b          MOV      r0,#0xd40b
001c28  f7fffffe          BL       lcd_write_reg_data
;;;1535   
;;;1536   		lcd_write_reg_data(0xD40C,0x00);
001c2c  2100              MOVS     r1,#0
001c2e  f24d400c          MOV      r0,#0xd40c
001c32  f7fffffe          BL       lcd_write_reg_data
;;;1537   		lcd_write_reg_data(0xD40D,0xA6);
001c36  21a6              MOVS     r1,#0xa6
001c38  f24d400d          MOV      r0,#0xd40d
001c3c  f7fffffe          BL       lcd_write_reg_data
;;;1538   		lcd_write_reg_data(0xD40E,0x00);
001c40  2100              MOVS     r1,#0
001c42  f24d400e          MOV      r0,#0xd40e
001c46  f7fffffe          BL       lcd_write_reg_data
;;;1539   		lcd_write_reg_data(0xD40F,0xE5);
001c4a  21e5              MOVS     r1,#0xe5
001c4c  f24d400f          MOV      r0,#0xd40f
001c50  f7fffffe          BL       lcd_write_reg_data
;;;1540   		lcd_write_reg_data(0xD410,0x01);
001c54  2101              MOVS     r1,#1
001c56  f24d4010          MOV      r0,#0xd410
001c5a  f7fffffe          BL       lcd_write_reg_data
;;;1541   		lcd_write_reg_data(0xD411,0x13);
001c5e  2113              MOVS     r1,#0x13
001c60  f24d4011          MOV      r0,#0xd411
001c64  f7fffffe          BL       lcd_write_reg_data
;;;1542   		lcd_write_reg_data(0xD412,0x01);
001c68  2101              MOVS     r1,#1
001c6a  f24d4012          MOV      r0,#0xd412
001c6e  f7fffffe          BL       lcd_write_reg_data
;;;1543   		lcd_write_reg_data(0xD413,0x54);
001c72  2154              MOVS     r1,#0x54
001c74  f24d4013          MOV      r0,#0xd413
001c78  f7fffffe          BL       lcd_write_reg_data
;;;1544   		lcd_write_reg_data(0xD414,0x01);
001c7c  2101              MOVS     r1,#1
001c7e  f24d4014          MOV      r0,#0xd414
001c82  f7fffffe          BL       lcd_write_reg_data
;;;1545   		lcd_write_reg_data(0xD415,0x82);
001c86  2182              MOVS     r1,#0x82
001c88  f24d4015          MOV      r0,#0xd415
001c8c  f7fffffe          BL       lcd_write_reg_data
;;;1546   		lcd_write_reg_data(0xD416,0x01);
001c90  2101              MOVS     r1,#1
001c92  f24d4016          MOV      r0,#0xd416
001c96  f7fffffe          BL       lcd_write_reg_data
;;;1547   		lcd_write_reg_data(0xD417,0xCA);
001c9a  21ca              MOVS     r1,#0xca
001c9c  f24d4017          MOV      r0,#0xd417
001ca0  f7fffffe          BL       lcd_write_reg_data
;;;1548   		lcd_write_reg_data(0xD418,0x02);
001ca4  2102              MOVS     r1,#2
001ca6  f24d4018          MOV      r0,#0xd418
001caa  f7fffffe          BL       lcd_write_reg_data
;;;1549   		lcd_write_reg_data(0xD419,0x00);
001cae  2100              MOVS     r1,#0
001cb0  f24d4019          MOV      r0,#0xd419
001cb4  f7fffffe          BL       lcd_write_reg_data
;;;1550   		lcd_write_reg_data(0xD41A,0x02);
001cb8  2102              MOVS     r1,#2
001cba  f24d401a          MOV      r0,#0xd41a
001cbe  f7fffffe          BL       lcd_write_reg_data
;;;1551   		lcd_write_reg_data(0xD41B,0x01);
001cc2  2101              MOVS     r1,#1
001cc4  e000              B        |L13.7368|
                  |L13.7366|
001cc6  e306              B        |L13.8918|
                  |L13.7368|
001cc8  f24d401b          MOV      r0,#0xd41b
001ccc  f7fffffe          BL       lcd_write_reg_data
;;;1552   		lcd_write_reg_data(0xD41C,0x02);
001cd0  2102              MOVS     r1,#2
001cd2  f24d401c          MOV      r0,#0xd41c
001cd6  f7fffffe          BL       lcd_write_reg_data
;;;1553   		lcd_write_reg_data(0xD41D,0x34);
001cda  2134              MOVS     r1,#0x34
001cdc  f24d401d          MOV      r0,#0xd41d
001ce0  f7fffffe          BL       lcd_write_reg_data
;;;1554   		lcd_write_reg_data(0xD41E,0x02);
001ce4  2102              MOVS     r1,#2
001ce6  f24d401e          MOV      r0,#0xd41e
001cea  f7fffffe          BL       lcd_write_reg_data
;;;1555   		lcd_write_reg_data(0xD41F,0x67);
001cee  2167              MOVS     r1,#0x67
001cf0  f24d401f          MOV      r0,#0xd41f
001cf4  f7fffffe          BL       lcd_write_reg_data
;;;1556   		lcd_write_reg_data(0xD420,0x02);
001cf8  2102              MOVS     r1,#2
001cfa  f24d4020          MOV      r0,#0xd420
001cfe  f7fffffe          BL       lcd_write_reg_data
;;;1557   		lcd_write_reg_data(0xD421,0x84);
001d02  2184              MOVS     r1,#0x84
001d04  f24d4021          MOV      r0,#0xd421
001d08  f7fffffe          BL       lcd_write_reg_data
;;;1558   		lcd_write_reg_data(0xD422,0x02);
001d0c  2102              MOVS     r1,#2
001d0e  f24d4022          MOV      r0,#0xd422
001d12  f7fffffe          BL       lcd_write_reg_data
;;;1559   		lcd_write_reg_data(0xD423,0xA4);
001d16  21a4              MOVS     r1,#0xa4
001d18  f24d4023          MOV      r0,#0xd423
001d1c  f7fffffe          BL       lcd_write_reg_data
;;;1560   		lcd_write_reg_data(0xD424,0x02);
001d20  2102              MOVS     r1,#2
001d22  f24d4024          MOV      r0,#0xd424
001d26  f7fffffe          BL       lcd_write_reg_data
;;;1561   		lcd_write_reg_data(0xD425,0xB7);
001d2a  21b7              MOVS     r1,#0xb7
001d2c  f24d4025          MOV      r0,#0xd425
001d30  f7fffffe          BL       lcd_write_reg_data
;;;1562   		lcd_write_reg_data(0xD426,0x02);
001d34  2102              MOVS     r1,#2
001d36  f24d4026          MOV      r0,#0xd426
001d3a  f7fffffe          BL       lcd_write_reg_data
;;;1563   		lcd_write_reg_data(0xD427,0xCF);
001d3e  21cf              MOVS     r1,#0xcf
001d40  f24d4027          MOV      r0,#0xd427
001d44  f7fffffe          BL       lcd_write_reg_data
;;;1564   		lcd_write_reg_data(0xD428,0x02);
001d48  2102              MOVS     r1,#2
001d4a  f24d4028          MOV      r0,#0xd428
001d4e  f7fffffe          BL       lcd_write_reg_data
;;;1565   		lcd_write_reg_data(0xD429,0xDE);
001d52  21de              MOVS     r1,#0xde
001d54  f24d4029          MOV      r0,#0xd429
001d58  f7fffffe          BL       lcd_write_reg_data
;;;1566   		lcd_write_reg_data(0xD42A,0x02);
001d5c  2102              MOVS     r1,#2
001d5e  f24d402a          MOV      r0,#0xd42a
001d62  f7fffffe          BL       lcd_write_reg_data
;;;1567   		lcd_write_reg_data(0xD42B,0xF2);
001d66  21f2              MOVS     r1,#0xf2
001d68  f24d402b          MOV      r0,#0xd42b
001d6c  f7fffffe          BL       lcd_write_reg_data
;;;1568   		lcd_write_reg_data(0xD42C,0x02);
001d70  2102              MOVS     r1,#2
001d72  f24d402c          MOV      r0,#0xd42c
001d76  f7fffffe          BL       lcd_write_reg_data
;;;1569   		lcd_write_reg_data(0xD42D,0xFE);
001d7a  21fe              MOVS     r1,#0xfe
001d7c  f24d402d          MOV      r0,#0xd42d
001d80  f7fffffe          BL       lcd_write_reg_data
;;;1570   		lcd_write_reg_data(0xD42E,0x03);
001d84  2103              MOVS     r1,#3
001d86  f24d402e          MOV      r0,#0xd42e
001d8a  f7fffffe          BL       lcd_write_reg_data
;;;1571   		lcd_write_reg_data(0xD42F,0x10);
001d8e  2110              MOVS     r1,#0x10
001d90  f24d402f          MOV      r0,#0xd42f
001d94  f7fffffe          BL       lcd_write_reg_data
;;;1572   		lcd_write_reg_data(0xD430,0x03);
001d98  2103              MOVS     r1,#3
001d9a  f24d4030          MOV      r0,#0xd430
001d9e  f7fffffe          BL       lcd_write_reg_data
;;;1573   		lcd_write_reg_data(0xD431,0x33);
001da2  2133              MOVS     r1,#0x33
001da4  f24d4031          MOV      r0,#0xd431
001da8  f7fffffe          BL       lcd_write_reg_data
;;;1574   		lcd_write_reg_data(0xD432,0x03);
001dac  2103              MOVS     r1,#3
001dae  f24d4032          MOV      r0,#0xd432
001db2  f7fffffe          BL       lcd_write_reg_data
;;;1575   		lcd_write_reg_data(0xD433,0x6D);
001db6  216d              MOVS     r1,#0x6d
001db8  f24d4033          MOV      r0,#0xd433
001dbc  f7fffffe          BL       lcd_write_reg_data
;;;1576   		lcd_write_reg_data(0xD500,0x00);
001dc0  2100              MOVS     r1,#0
001dc2  f44f4055          MOV      r0,#0xd500
001dc6  f7fffffe          BL       lcd_write_reg_data
;;;1577   		lcd_write_reg_data(0xD501,0x33);
001dca  2133              MOVS     r1,#0x33
001dcc  f24d5001          MOV      r0,#0xd501
001dd0  f7fffffe          BL       lcd_write_reg_data
;;;1578   		lcd_write_reg_data(0xD502,0x00);
001dd4  2100              MOVS     r1,#0
001dd6  f24d5002          MOV      r0,#0xd502
001dda  f7fffffe          BL       lcd_write_reg_data
;;;1579   		lcd_write_reg_data(0xD503,0x34);
001dde  2134              MOVS     r1,#0x34
001de0  f24d5003          MOV      r0,#0xd503
001de4  f7fffffe          BL       lcd_write_reg_data
;;;1580   		lcd_write_reg_data(0xD504,0x00);
001de8  2100              MOVS     r1,#0
001dea  f24d5004          MOV      r0,#0xd504
001dee  f7fffffe          BL       lcd_write_reg_data
;;;1581   		lcd_write_reg_data(0xD505,0x3A);
001df2  213a              MOVS     r1,#0x3a
001df4  f24d5005          MOV      r0,#0xd505
001df8  f7fffffe          BL       lcd_write_reg_data
;;;1582   		lcd_write_reg_data(0xD506,0x00);
001dfc  2100              MOVS     r1,#0
001dfe  f24d5006          MOV      r0,#0xd506
001e02  f7fffffe          BL       lcd_write_reg_data
;;;1583   		lcd_write_reg_data(0xD507,0x4A);
001e06  214a              MOVS     r1,#0x4a
001e08  f24d5007          MOV      r0,#0xd507
001e0c  f7fffffe          BL       lcd_write_reg_data
;;;1584   		lcd_write_reg_data(0xD508,0x00);
001e10  2100              MOVS     r1,#0
001e12  f24d5008          MOV      r0,#0xd508
001e16  f7fffffe          BL       lcd_write_reg_data
;;;1585   		lcd_write_reg_data(0xD509,0x5C);
001e1a  215c              MOVS     r1,#0x5c
001e1c  f24d5009          MOV      r0,#0xd509
001e20  f7fffffe          BL       lcd_write_reg_data
;;;1586   		lcd_write_reg_data(0xD50A,0x00);
001e24  2100              MOVS     r1,#0
001e26  f24d500a          MOV      r0,#0xd50a
001e2a  f7fffffe          BL       lcd_write_reg_data
;;;1587   		lcd_write_reg_data(0xD50B,0x81);
001e2e  2181              MOVS     r1,#0x81
001e30  f24d500b          MOV      r0,#0xd50b
001e34  f7fffffe          BL       lcd_write_reg_data
;;;1588   
;;;1589   		lcd_write_reg_data(0xD50C,0x00);
001e38  2100              MOVS     r1,#0
001e3a  f24d500c          MOV      r0,#0xd50c
001e3e  f7fffffe          BL       lcd_write_reg_data
;;;1590   		lcd_write_reg_data(0xD50D,0xA6);
001e42  21a6              MOVS     r1,#0xa6
001e44  f24d500d          MOV      r0,#0xd50d
001e48  f7fffffe          BL       lcd_write_reg_data
;;;1591   		lcd_write_reg_data(0xD50E,0x00);
001e4c  2100              MOVS     r1,#0
001e4e  f24d500e          MOV      r0,#0xd50e
001e52  f7fffffe          BL       lcd_write_reg_data
;;;1592   		lcd_write_reg_data(0xD50F,0xE5);
001e56  21e5              MOVS     r1,#0xe5
001e58  f24d500f          MOV      r0,#0xd50f
001e5c  f7fffffe          BL       lcd_write_reg_data
;;;1593   		lcd_write_reg_data(0xD510,0x01);
001e60  2101              MOVS     r1,#1
001e62  f24d5010          MOV      r0,#0xd510
001e66  f7fffffe          BL       lcd_write_reg_data
;;;1594   		lcd_write_reg_data(0xD511,0x13);
001e6a  2113              MOVS     r1,#0x13
001e6c  f24d5011          MOV      r0,#0xd511
001e70  f7fffffe          BL       lcd_write_reg_data
;;;1595   		lcd_write_reg_data(0xD512,0x01);
001e74  2101              MOVS     r1,#1
001e76  f24d5012          MOV      r0,#0xd512
001e7a  f7fffffe          BL       lcd_write_reg_data
;;;1596   		lcd_write_reg_data(0xD513,0x54);
001e7e  2154              MOVS     r1,#0x54
001e80  f24d5013          MOV      r0,#0xd513
001e84  f7fffffe          BL       lcd_write_reg_data
;;;1597   		lcd_write_reg_data(0xD514,0x01);
001e88  2101              MOVS     r1,#1
001e8a  f24d5014          MOV      r0,#0xd514
001e8e  f7fffffe          BL       lcd_write_reg_data
;;;1598   		lcd_write_reg_data(0xD515,0x82);
001e92  2182              MOVS     r1,#0x82
001e94  f24d5015          MOV      r0,#0xd515
001e98  f7fffffe          BL       lcd_write_reg_data
;;;1599   		lcd_write_reg_data(0xD516,0x01);
001e9c  2101              MOVS     r1,#1
001e9e  f24d5016          MOV      r0,#0xd516
001ea2  f7fffffe          BL       lcd_write_reg_data
;;;1600   		lcd_write_reg_data(0xD517,0xCA);
001ea6  21ca              MOVS     r1,#0xca
001ea8  f24d5017          MOV      r0,#0xd517
001eac  f7fffffe          BL       lcd_write_reg_data
;;;1601   		lcd_write_reg_data(0xD518,0x02);
001eb0  2102              MOVS     r1,#2
001eb2  f24d5018          MOV      r0,#0xd518
001eb6  f7fffffe          BL       lcd_write_reg_data
;;;1602   		lcd_write_reg_data(0xD519,0x00);
001eba  2100              MOVS     r1,#0
001ebc  f24d5019          MOV      r0,#0xd519
001ec0  f7fffffe          BL       lcd_write_reg_data
;;;1603   		lcd_write_reg_data(0xD51A,0x02);
001ec4  2102              MOVS     r1,#2
001ec6  f24d501a          MOV      r0,#0xd51a
001eca  f7fffffe          BL       lcd_write_reg_data
;;;1604   		lcd_write_reg_data(0xD51B,0x01);
001ece  2101              MOVS     r1,#1
001ed0  f24d501b          MOV      r0,#0xd51b
001ed4  f7fffffe          BL       lcd_write_reg_data
;;;1605   		lcd_write_reg_data(0xD51C,0x02);
001ed8  2102              MOVS     r1,#2
001eda  f24d501c          MOV      r0,#0xd51c
001ede  f7fffffe          BL       lcd_write_reg_data
;;;1606   		lcd_write_reg_data(0xD51D,0x34);
001ee2  2134              MOVS     r1,#0x34
001ee4  f24d501d          MOV      r0,#0xd51d
001ee8  f7fffffe          BL       lcd_write_reg_data
;;;1607   		lcd_write_reg_data(0xD51E,0x02);
001eec  2102              MOVS     r1,#2
001eee  f24d501e          MOV      r0,#0xd51e
001ef2  f7fffffe          BL       lcd_write_reg_data
;;;1608   		lcd_write_reg_data(0xD51F,0x67);
001ef6  2167              MOVS     r1,#0x67
001ef8  f24d501f          MOV      r0,#0xd51f
001efc  f7fffffe          BL       lcd_write_reg_data
;;;1609   		lcd_write_reg_data(0xD520,0x02);
001f00  2102              MOVS     r1,#2
001f02  f24d5020          MOV      r0,#0xd520
001f06  f7fffffe          BL       lcd_write_reg_data
;;;1610   		lcd_write_reg_data(0xD521,0x84);
001f0a  2184              MOVS     r1,#0x84
001f0c  f24d5021          MOV      r0,#0xd521
001f10  f7fffffe          BL       lcd_write_reg_data
;;;1611   		lcd_write_reg_data(0xD522,0x02);
001f14  2102              MOVS     r1,#2
001f16  f24d5022          MOV      r0,#0xd522
001f1a  f7fffffe          BL       lcd_write_reg_data
;;;1612   		lcd_write_reg_data(0xD523,0xA4);
001f1e  21a4              MOVS     r1,#0xa4
001f20  f24d5023          MOV      r0,#0xd523
001f24  f7fffffe          BL       lcd_write_reg_data
;;;1613   		lcd_write_reg_data(0xD524,0x02);
001f28  2102              MOVS     r1,#2
001f2a  f24d5024          MOV      r0,#0xd524
001f2e  f7fffffe          BL       lcd_write_reg_data
;;;1614   		lcd_write_reg_data(0xD525,0xB7);
001f32  21b7              MOVS     r1,#0xb7
001f34  f24d5025          MOV      r0,#0xd525
001f38  f7fffffe          BL       lcd_write_reg_data
;;;1615   		lcd_write_reg_data(0xD526,0x02);
001f3c  2102              MOVS     r1,#2
001f3e  f24d5026          MOV      r0,#0xd526
001f42  f7fffffe          BL       lcd_write_reg_data
;;;1616   		lcd_write_reg_data(0xD527,0xCF);
001f46  21cf              MOVS     r1,#0xcf
001f48  f24d5027          MOV      r0,#0xd527
001f4c  f7fffffe          BL       lcd_write_reg_data
;;;1617   		lcd_write_reg_data(0xD528,0x02);
001f50  2102              MOVS     r1,#2
001f52  f24d5028          MOV      r0,#0xd528
001f56  f7fffffe          BL       lcd_write_reg_data
;;;1618   		lcd_write_reg_data(0xD529,0xDE);
001f5a  21de              MOVS     r1,#0xde
001f5c  f24d5029          MOV      r0,#0xd529
001f60  f7fffffe          BL       lcd_write_reg_data
;;;1619   		lcd_write_reg_data(0xD52A,0x02);
001f64  2102              MOVS     r1,#2
001f66  f24d502a          MOV      r0,#0xd52a
001f6a  f7fffffe          BL       lcd_write_reg_data
;;;1620   		lcd_write_reg_data(0xD52B,0xF2);
001f6e  21f2              MOVS     r1,#0xf2
001f70  f24d502b          MOV      r0,#0xd52b
001f74  f7fffffe          BL       lcd_write_reg_data
;;;1621   		lcd_write_reg_data(0xD52C,0x02);
001f78  2102              MOVS     r1,#2
001f7a  f24d502c          MOV      r0,#0xd52c
001f7e  f7fffffe          BL       lcd_write_reg_data
;;;1622   		lcd_write_reg_data(0xD52D,0xFE);
001f82  21fe              MOVS     r1,#0xfe
001f84  f24d502d          MOV      r0,#0xd52d
001f88  f7fffffe          BL       lcd_write_reg_data
;;;1623   		lcd_write_reg_data(0xD52E,0x03);
001f8c  2103              MOVS     r1,#3
001f8e  f24d502e          MOV      r0,#0xd52e
001f92  f7fffffe          BL       lcd_write_reg_data
;;;1624   		lcd_write_reg_data(0xD52F,0x10);
001f96  2110              MOVS     r1,#0x10
001f98  f24d502f          MOV      r0,#0xd52f
001f9c  f7fffffe          BL       lcd_write_reg_data
;;;1625   		lcd_write_reg_data(0xD530,0x03);
001fa0  2103              MOVS     r1,#3
001fa2  f24d5030          MOV      r0,#0xd530
001fa6  f7fffffe          BL       lcd_write_reg_data
;;;1626   		lcd_write_reg_data(0xD531,0x33);
001faa  2133              MOVS     r1,#0x33
001fac  f24d5031          MOV      r0,#0xd531
001fb0  f7fffffe          BL       lcd_write_reg_data
;;;1627   		lcd_write_reg_data(0xD532,0x03);
001fb4  2103              MOVS     r1,#3
001fb6  f24d5032          MOV      r0,#0xd532
001fba  f7fffffe          BL       lcd_write_reg_data
;;;1628   		lcd_write_reg_data(0xD533,0x6D);
001fbe  216d              MOVS     r1,#0x6d
001fc0  f24d5033          MOV      r0,#0xd533
001fc4  f7fffffe          BL       lcd_write_reg_data
;;;1629   		lcd_write_reg_data(0xD600,0x00);
001fc8  2100              MOVS     r1,#0
001fca  f44f4056          MOV      r0,#0xd600
001fce  f7fffffe          BL       lcd_write_reg_data
;;;1630   		lcd_write_reg_data(0xD601,0x33);
001fd2  2133              MOVS     r1,#0x33
001fd4  f24d6001          MOV      r0,#0xd601
001fd8  f7fffffe          BL       lcd_write_reg_data
;;;1631   		lcd_write_reg_data(0xD602,0x00);
001fdc  2100              MOVS     r1,#0
001fde  f24d6002          MOV      r0,#0xd602
001fe2  f7fffffe          BL       lcd_write_reg_data
;;;1632   		lcd_write_reg_data(0xD603,0x34);
001fe6  2134              MOVS     r1,#0x34
001fe8  f24d6003          MOV      r0,#0xd603
001fec  f7fffffe          BL       lcd_write_reg_data
;;;1633   		lcd_write_reg_data(0xD604,0x00);
001ff0  2100              MOVS     r1,#0
001ff2  f24d6004          MOV      r0,#0xd604
001ff6  f7fffffe          BL       lcd_write_reg_data
;;;1634   		lcd_write_reg_data(0xD605,0x3A);
001ffa  213a              MOVS     r1,#0x3a
001ffc  f24d6005          MOV      r0,#0xd605
002000  f7fffffe          BL       lcd_write_reg_data
;;;1635   		lcd_write_reg_data(0xD606,0x00);
002004  2100              MOVS     r1,#0
002006  f24d6006          MOV      r0,#0xd606
00200a  f7fffffe          BL       lcd_write_reg_data
;;;1636   		lcd_write_reg_data(0xD607,0x4A);
00200e  214a              MOVS     r1,#0x4a
002010  f24d6007          MOV      r0,#0xd607
002014  f7fffffe          BL       lcd_write_reg_data
;;;1637   		lcd_write_reg_data(0xD608,0x00);
002018  2100              MOVS     r1,#0
00201a  f24d6008          MOV      r0,#0xd608
00201e  f7fffffe          BL       lcd_write_reg_data
;;;1638   		lcd_write_reg_data(0xD609,0x5C);
002022  215c              MOVS     r1,#0x5c
002024  f24d6009          MOV      r0,#0xd609
002028  f7fffffe          BL       lcd_write_reg_data
;;;1639   		lcd_write_reg_data(0xD60A,0x00);
00202c  2100              MOVS     r1,#0
00202e  f24d600a          MOV      r0,#0xd60a
002032  f7fffffe          BL       lcd_write_reg_data
;;;1640   		lcd_write_reg_data(0xD60B,0x81);
002036  2181              MOVS     r1,#0x81
002038  f24d600b          MOV      r0,#0xd60b
00203c  f7fffffe          BL       lcd_write_reg_data
;;;1641   
;;;1642   		lcd_write_reg_data(0xD60C,0x00);
002040  2100              MOVS     r1,#0
002042  f24d600c          MOV      r0,#0xd60c
002046  f7fffffe          BL       lcd_write_reg_data
;;;1643   		lcd_write_reg_data(0xD60D,0xA6);
00204a  21a6              MOVS     r1,#0xa6
00204c  f24d600d          MOV      r0,#0xd60d
002050  f7fffffe          BL       lcd_write_reg_data
;;;1644   		lcd_write_reg_data(0xD60E,0x00);
002054  2100              MOVS     r1,#0
002056  f24d600e          MOV      r0,#0xd60e
00205a  f7fffffe          BL       lcd_write_reg_data
;;;1645   		lcd_write_reg_data(0xD60F,0xE5);
00205e  21e5              MOVS     r1,#0xe5
002060  f24d600f          MOV      r0,#0xd60f
002064  f7fffffe          BL       lcd_write_reg_data
;;;1646   		lcd_write_reg_data(0xD610,0x01);
002068  2101              MOVS     r1,#1
00206a  f24d6010          MOV      r0,#0xd610
00206e  f7fffffe          BL       lcd_write_reg_data
;;;1647   		lcd_write_reg_data(0xD611,0x13);
002072  2113              MOVS     r1,#0x13
002074  f24d6011          MOV      r0,#0xd611
002078  f7fffffe          BL       lcd_write_reg_data
;;;1648   		lcd_write_reg_data(0xD612,0x01);
00207c  2101              MOVS     r1,#1
00207e  f24d6012          MOV      r0,#0xd612
002082  f7fffffe          BL       lcd_write_reg_data
;;;1649   		lcd_write_reg_data(0xD613,0x54);
002086  2154              MOVS     r1,#0x54
002088  f24d6013          MOV      r0,#0xd613
00208c  f7fffffe          BL       lcd_write_reg_data
;;;1650   		lcd_write_reg_data(0xD614,0x01);
002090  2101              MOVS     r1,#1
002092  f24d6014          MOV      r0,#0xd614
002096  f7fffffe          BL       lcd_write_reg_data
;;;1651   		lcd_write_reg_data(0xD615,0x82);
00209a  2182              MOVS     r1,#0x82
00209c  f24d6015          MOV      r0,#0xd615
0020a0  f7fffffe          BL       lcd_write_reg_data
;;;1652   		lcd_write_reg_data(0xD616,0x01);
0020a4  2101              MOVS     r1,#1
0020a6  f24d6016          MOV      r0,#0xd616
0020aa  f7fffffe          BL       lcd_write_reg_data
;;;1653   		lcd_write_reg_data(0xD617,0xCA);
0020ae  21ca              MOVS     r1,#0xca
0020b0  f24d6017          MOV      r0,#0xd617
0020b4  f7fffffe          BL       lcd_write_reg_data
;;;1654   		lcd_write_reg_data(0xD618,0x02);
0020b8  2102              MOVS     r1,#2
0020ba  f24d6018          MOV      r0,#0xd618
0020be  f7fffffe          BL       lcd_write_reg_data
;;;1655   		lcd_write_reg_data(0xD619,0x00);
0020c2  2100              MOVS     r1,#0
0020c4  f24d6019          MOV      r0,#0xd619
0020c8  f7fffffe          BL       lcd_write_reg_data
;;;1656   		lcd_write_reg_data(0xD61A,0x02);
0020cc  2102              MOVS     r1,#2
0020ce  f24d601a          MOV      r0,#0xd61a
0020d2  f7fffffe          BL       lcd_write_reg_data
;;;1657   		lcd_write_reg_data(0xD61B,0x01);
0020d6  2101              MOVS     r1,#1
0020d8  f24d601b          MOV      r0,#0xd61b
0020dc  f7fffffe          BL       lcd_write_reg_data
;;;1658   		lcd_write_reg_data(0xD61C,0x02);
0020e0  2102              MOVS     r1,#2
0020e2  f24d601c          MOV      r0,#0xd61c
0020e6  f7fffffe          BL       lcd_write_reg_data
;;;1659   		lcd_write_reg_data(0xD61D,0x34);
0020ea  2134              MOVS     r1,#0x34
0020ec  f24d601d          MOV      r0,#0xd61d
0020f0  f7fffffe          BL       lcd_write_reg_data
;;;1660   		lcd_write_reg_data(0xD61E,0x02);
0020f4  2102              MOVS     r1,#2
0020f6  f24d601e          MOV      r0,#0xd61e
0020fa  f7fffffe          BL       lcd_write_reg_data
;;;1661   		lcd_write_reg_data(0xD61F,0x67);
0020fe  2167              MOVS     r1,#0x67
002100  f24d601f          MOV      r0,#0xd61f
002104  f7fffffe          BL       lcd_write_reg_data
;;;1662   		lcd_write_reg_data(0xD620,0x02);
002108  2102              MOVS     r1,#2
00210a  f24d6020          MOV      r0,#0xd620
00210e  f7fffffe          BL       lcd_write_reg_data
;;;1663   		lcd_write_reg_data(0xD621,0x84);
002112  2184              MOVS     r1,#0x84
002114  f24d6021          MOV      r0,#0xd621
002118  f7fffffe          BL       lcd_write_reg_data
;;;1664   		lcd_write_reg_data(0xD622,0x02);
00211c  2102              MOVS     r1,#2
00211e  f24d6022          MOV      r0,#0xd622
002122  f7fffffe          BL       lcd_write_reg_data
;;;1665   		lcd_write_reg_data(0xD623,0xA4);
002126  21a4              MOVS     r1,#0xa4
002128  f24d6023          MOV      r0,#0xd623
00212c  f7fffffe          BL       lcd_write_reg_data
;;;1666   		lcd_write_reg_data(0xD624,0x02);
002130  2102              MOVS     r1,#2
002132  f24d6024          MOV      r0,#0xd624
002136  f7fffffe          BL       lcd_write_reg_data
;;;1667   		lcd_write_reg_data(0xD625,0xB7);
00213a  21b7              MOVS     r1,#0xb7
00213c  f24d6025          MOV      r0,#0xd625
002140  f7fffffe          BL       lcd_write_reg_data
;;;1668   		lcd_write_reg_data(0xD626,0x02);
002144  2102              MOVS     r1,#2
002146  f24d6026          MOV      r0,#0xd626
00214a  f7fffffe          BL       lcd_write_reg_data
;;;1669   		lcd_write_reg_data(0xD627,0xCF);
00214e  21cf              MOVS     r1,#0xcf
002150  f24d6027          MOV      r0,#0xd627
002154  f7fffffe          BL       lcd_write_reg_data
;;;1670   		lcd_write_reg_data(0xD628,0x02);
002158  2102              MOVS     r1,#2
00215a  f24d6028          MOV      r0,#0xd628
00215e  f7fffffe          BL       lcd_write_reg_data
;;;1671   		lcd_write_reg_data(0xD629,0xDE);
002162  21de              MOVS     r1,#0xde
002164  f24d6029          MOV      r0,#0xd629
002168  f7fffffe          BL       lcd_write_reg_data
;;;1672   		lcd_write_reg_data(0xD62A,0x02);
00216c  2102              MOVS     r1,#2
00216e  f24d602a          MOV      r0,#0xd62a
002172  f7fffffe          BL       lcd_write_reg_data
;;;1673   		lcd_write_reg_data(0xD62B,0xF2);
002176  21f2              MOVS     r1,#0xf2
002178  f24d602b          MOV      r0,#0xd62b
00217c  f7fffffe          BL       lcd_write_reg_data
;;;1674   		lcd_write_reg_data(0xD62C,0x02);
002180  2102              MOVS     r1,#2
002182  f24d602c          MOV      r0,#0xd62c
002186  f7fffffe          BL       lcd_write_reg_data
;;;1675   		lcd_write_reg_data(0xD62D,0xFE);
00218a  21fe              MOVS     r1,#0xfe
00218c  f24d602d          MOV      r0,#0xd62d
002190  f7fffffe          BL       lcd_write_reg_data
;;;1676   		lcd_write_reg_data(0xD62E,0x03);
002194  2103              MOVS     r1,#3
002196  f24d602e          MOV      r0,#0xd62e
00219a  f7fffffe          BL       lcd_write_reg_data
;;;1677   		lcd_write_reg_data(0xD62F,0x10);
00219e  2110              MOVS     r1,#0x10
0021a0  f24d602f          MOV      r0,#0xd62f
0021a4  f7fffffe          BL       lcd_write_reg_data
;;;1678   		lcd_write_reg_data(0xD630,0x03);
0021a8  2103              MOVS     r1,#3
0021aa  f24d6030          MOV      r0,#0xd630
0021ae  f7fffffe          BL       lcd_write_reg_data
;;;1679   		lcd_write_reg_data(0xD631,0x33);
0021b2  2133              MOVS     r1,#0x33
0021b4  f24d6031          MOV      r0,#0xd631
0021b8  f7fffffe          BL       lcd_write_reg_data
;;;1680   		lcd_write_reg_data(0xD632,0x03);
0021bc  2103              MOVS     r1,#3
0021be  f24d6032          MOV      r0,#0xd632
0021c2  f7fffffe          BL       lcd_write_reg_data
;;;1681   		lcd_write_reg_data(0xD633,0x6D);
0021c6  216d              MOVS     r1,#0x6d
0021c8  f24d6033          MOV      r0,#0xd633
0021cc  f7fffffe          BL       lcd_write_reg_data
;;;1682   		//LV2 Page 0 enable
;;;1683   		lcd_write_reg_data(0xF000,0x55);
0021d0  2155              MOVS     r1,#0x55
0021d2  4618              MOV      r0,r3
0021d4  f7fffffe          BL       lcd_write_reg_data
;;;1684   		lcd_write_reg_data(0xF001,0xAA);
0021d8  21aa              MOVS     r1,#0xaa
0021da  f24f0001          MOV      r0,#0xf001
0021de  f7fffffe          BL       lcd_write_reg_data
;;;1685   		lcd_write_reg_data(0xF002,0x52);
0021e2  2152              MOVS     r1,#0x52
0021e4  f24f0002          MOV      r0,#0xf002
0021e8  f7fffffe          BL       lcd_write_reg_data
;;;1686   		lcd_write_reg_data(0xF003,0x08);
0021ec  2108              MOVS     r1,#8
0021ee  f24f0003          MOV      r0,#0xf003
0021f2  f7fffffe          BL       lcd_write_reg_data
;;;1687   		lcd_write_reg_data(0xF004,0x00);
0021f6  2100              MOVS     r1,#0
0021f8  f24f0004          MOV      r0,#0xf004
0021fc  f7fffffe          BL       lcd_write_reg_data
;;;1688   		//Display control
;;;1689   		lcd_write_reg_data(0xB100, 0xCC);
002200  21cc              MOVS     r1,#0xcc
002202  f44f4031          MOV      r0,#0xb100
002206  f7fffffe          BL       lcd_write_reg_data
;;;1690   		lcd_write_reg_data(0xB101, 0x00);
00220a  2100              MOVS     r1,#0
00220c  f24b1001          MOV      r0,#0xb101
002210  f7fffffe          BL       lcd_write_reg_data
;;;1691   		//Source hold time
;;;1692   		lcd_write_reg_data(0xB600,0x05);
002214  2105              MOVS     r1,#5
002216  f44f4036          MOV      r0,#0xb600
00221a  f7fffffe          BL       lcd_write_reg_data
;;;1693   		//Gate EQ control
;;;1694   		lcd_write_reg_data(0xB700,0x70);
00221e  2170              MOVS     r1,#0x70
002220  f44f4037          MOV      r0,#0xb700
002224  f7fffffe          BL       lcd_write_reg_data
;;;1695   		lcd_write_reg_data(0xB701,0x70);
002228  2170              MOVS     r1,#0x70
00222a  f24b7001          MOV      r0,#0xb701
00222e  f7fffffe          BL       lcd_write_reg_data
;;;1696   		//Source EQ control (Mode 2)
;;;1697   		lcd_write_reg_data(0xB800,0x01);
002232  2101              MOVS     r1,#1
002234  f44f4038          MOV      r0,#0xb800
002238  f7fffffe          BL       lcd_write_reg_data
;;;1698   		lcd_write_reg_data(0xB801,0x03);
00223c  2103              MOVS     r1,#3
00223e  f64b0001          MOV      r0,#0xb801
002242  f7fffffe          BL       lcd_write_reg_data
;;;1699   		lcd_write_reg_data(0xB802,0x03);
002246  2103              MOVS     r1,#3
002248  f64b0002          MOV      r0,#0xb802
00224c  f7fffffe          BL       lcd_write_reg_data
;;;1700   		lcd_write_reg_data(0xB803,0x03);
002250  2103              MOVS     r1,#3
002252  f64b0003          MOV      r0,#0xb803
002256  f7fffffe          BL       lcd_write_reg_data
;;;1701   		//Inversion mode (2-dot)
;;;1702   		lcd_write_reg_data(0xBC00,0x02);
00225a  2102              MOVS     r1,#2
00225c  f44f403c          MOV      r0,#0xbc00
002260  f7fffffe          BL       lcd_write_reg_data
;;;1703   		lcd_write_reg_data(0xBC01,0x00);
002264  2100              MOVS     r1,#0
002266  f64b4001          MOV      r0,#0xbc01
00226a  f7fffffe          BL       lcd_write_reg_data
;;;1704   		lcd_write_reg_data(0xBC02,0x00);
00226e  2100              MOVS     r1,#0
002270  f64b4002          MOV      r0,#0xbc02
002274  f7fffffe          BL       lcd_write_reg_data
;;;1705   		//Timing control 4H w/ 4-delay
;;;1706   		lcd_write_reg_data(0xC900,0xD0);
002278  21d0              MOVS     r1,#0xd0
00227a  f44f4049          MOV      r0,#0xc900
00227e  f7fffffe          BL       lcd_write_reg_data
;;;1707   		lcd_write_reg_data(0xC901,0x02);
002282  2102              MOVS     r1,#2
002284  f64c1001          MOV      r0,#0xc901
002288  f7fffffe          BL       lcd_write_reg_data
;;;1708   		lcd_write_reg_data(0xC902,0x50);
00228c  2150              MOVS     r1,#0x50
00228e  f64c1002          MOV      r0,#0xc902
002292  f7fffffe          BL       lcd_write_reg_data
;;;1709   		lcd_write_reg_data(0xC903,0x50);
002296  2150              MOVS     r1,#0x50
002298  f64c1003          MOV      r0,#0xc903
00229c  f7fffffe          BL       lcd_write_reg_data
;;;1710   		lcd_write_reg_data(0xC904,0x50);
0022a0  2150              MOVS     r1,#0x50
0022a2  f64c1004          MOV      r0,#0xc904
0022a6  f7fffffe          BL       lcd_write_reg_data
;;;1711   		lcd_write_reg_data(0x3500,0x00);
0022aa  2100              MOVS     r1,#0
0022ac  f44f5054          MOV      r0,#0x3500
0022b0  f7fffffe          BL       lcd_write_reg_data
;;;1712   		lcd_write_reg_data(0x3A00,0x55);  //16-bit/pixel
0022b4  2155              MOVS     r1,#0x55
0022b6  f44f5068          MOV      r0,#0x3a00
0022ba  f7fffffe          BL       lcd_write_reg_data
;;;1713   		lcd_wr_reg(0x1100);
0022be  f44f5088          MOV      r0,#0x1100
0022c2  f7fffffe          BL       lcd_wr_reg
;;;1714   		delay_us(120);
0022c6  2078              MOVS     r0,#0x78
0022c8  f7fffffe          BL       delay_us
;;;1715   		lcd_wr_reg(0x2900);  
0022cc  f44f5024          MOV      r0,#0x2900
                  |L13.8912|
0022d0  f7fffffe          BL       lcd_wr_reg
                  |L13.8916|
0022d4  e0b9              B        |L13.9290|
                  |L13.8918|
;;;1716   	}else if(lcd_dev.id==0X1963)
0022d6  42b8              CMP      r0,r7
0022d8  d1fc              BNE      |L13.8916|
;;;1717   	{
;;;1718   		lcd_wr_reg(0xE2);		//Set PLL with OSC = 10MHz (hardware),	Multiplier N = 35, 250MHz < VCO < 800MHz = OSC*(N+1), VCO = 300MHz
0022da  20e2              MOVS     r0,#0xe2
0022dc  f7fffffe          BL       lcd_wr_reg
;;;1719   		lcd_write_data_16bit(0x1D);		//参数1 
0022e0  201d              MOVS     r0,#0x1d
0022e2  f7fffffe          BL       lcd_write_data_16bit
;;;1720   		lcd_write_data_16bit(0x02);		//参数2 Divider M = 2, PLL = 300/(M+1) = 100MHz
0022e6  2002              MOVS     r0,#2
0022e8  f7fffffe          BL       lcd_write_data_16bit
;;;1721   		lcd_write_data_16bit(0x04);		//参数3 Validate M and N values   
0022ec  2004              MOVS     r0,#4
0022ee  f7fffffe          BL       lcd_write_data_16bit
;;;1722   		delay_us(100);
0022f2  2064              MOVS     r0,#0x64
0022f4  f7fffffe          BL       delay_us
;;;1723   		lcd_wr_reg(0xE0);		// Start PLL command
0022f8  20e0              MOVS     r0,#0xe0
0022fa  f7fffffe          BL       lcd_wr_reg
;;;1724   		lcd_write_data_16bit(0x01);		// enable PLL
0022fe  2001              MOVS     r0,#1
002300  f7fffffe          BL       lcd_write_data_16bit
;;;1725   		delay_ms(10);
002304  200a              MOVS     r0,#0xa
002306  f7fffffe          BL       delay_ms
;;;1726   		lcd_wr_reg(0xE0);		// Start PLL command again
00230a  20e0              MOVS     r0,#0xe0
00230c  f7fffffe          BL       lcd_wr_reg
;;;1727   		lcd_write_data_16bit(0x03);		// now, use PLL output as system clock	
002310  2003              MOVS     r0,#3
002312  f7fffffe          BL       lcd_write_data_16bit
;;;1728   		delay_ms(12);  
002316  200c              MOVS     r0,#0xc
002318  f7fffffe          BL       delay_ms
;;;1729   		lcd_wr_reg(0x01);		//软复位
00231c  2001              MOVS     r0,#1
00231e  f7fffffe          BL       lcd_wr_reg
;;;1730   		delay_ms(10);
002322  200a              MOVS     r0,#0xa
002324  f7fffffe          BL       delay_ms
;;;1731   		
;;;1732   		lcd_wr_reg(0xE6);		//设置像素频率,33Mhz
002328  20e6              MOVS     r0,#0xe6
00232a  f7fffffe          BL       lcd_wr_reg
;;;1733   		lcd_write_data_16bit(0x2F);
00232e  202f              MOVS     r0,#0x2f
002330  f7fffffe          BL       lcd_write_data_16bit
;;;1734   		lcd_write_data_16bit(0xFF);
002334  20ff              MOVS     r0,#0xff
002336  f7fffffe          BL       lcd_write_data_16bit
;;;1735   		lcd_write_data_16bit(0xFF);
00233a  20ff              MOVS     r0,#0xff
00233c  f7fffffe          BL       lcd_write_data_16bit
;;;1736   		
;;;1737   		lcd_wr_reg(0xB0);		//设置LCD模式
002340  20b0              MOVS     r0,#0xb0
002342  f7fffffe          BL       lcd_wr_reg
;;;1738   		lcd_write_data_16bit(0x20);		//24位模式
002346  2020              MOVS     r0,#0x20
002348  f7fffffe          BL       lcd_write_data_16bit
;;;1739   		lcd_write_data_16bit(0x00);		//TFT 模式 
00234c  2000              MOVS     r0,#0
00234e  f7fffffe          BL       lcd_write_data_16bit
;;;1740   	
;;;1741   		lcd_write_data_16bit((SSD_HOR_RESOLUTION-1)>>8);//设置LCD水平像素
002352  2003              MOVS     r0,#3
002354  f7fffffe          BL       lcd_write_data_16bit
;;;1742   		lcd_write_data_16bit(SSD_HOR_RESOLUTION-1);		 
002358  f240301f          MOV      r0,#0x31f
00235c  f7fffffe          BL       lcd_write_data_16bit
;;;1743   		lcd_write_data_16bit((SSD_VER_RESOLUTION-1)>>8);//设置LCD垂直像素
002360  2001              MOVS     r0,#1
002362  f7fffffe          BL       lcd_write_data_16bit
;;;1744   		lcd_write_data_16bit(SSD_VER_RESOLUTION-1);		 
002366  f24010df          MOV      r0,#0x1df
00236a  f7fffffe          BL       lcd_write_data_16bit
;;;1745   		lcd_write_data_16bit(0x00);		//RGB序列 
00236e  2000              MOVS     r0,#0
002370  f7fffffe          BL       lcd_write_data_16bit
;;;1746   		
;;;1747   		lcd_wr_reg(0xB4);		//Set horizontal period
002374  20b4              MOVS     r0,#0xb4
002376  f7fffffe          BL       lcd_wr_reg
;;;1748   		lcd_write_data_16bit((SSD_HT-1)>>8);
00237a  2004              MOVS     r0,#4
00237c  f7fffffe          BL       lcd_write_data_16bit
;;;1749   		lcd_write_data_16bit(SSD_HT-1);
002380  f240401f          MOV      r0,#0x41f
002384  f7fffffe          BL       lcd_write_data_16bit
;;;1750   		lcd_write_data_16bit(SSD_HPS>>8);
002388  2000              MOVS     r0,#0
00238a  f7fffffe          BL       lcd_write_data_16bit
;;;1751   		lcd_write_data_16bit(SSD_HPS);
00238e  202e              MOVS     r0,#0x2e
002390  f7fffffe          BL       lcd_write_data_16bit
;;;1752   		lcd_write_data_16bit(SSD_HOR_PULSE_WIDTH-1);
002394  2000              MOVS     r0,#0
002396  f7fffffe          BL       lcd_write_data_16bit
;;;1753   		lcd_write_data_16bit(0x00);
00239a  2000              MOVS     r0,#0
00239c  f7fffffe          BL       lcd_write_data_16bit
;;;1754   		lcd_write_data_16bit(0x00);
0023a0  2000              MOVS     r0,#0
0023a2  f7fffffe          BL       lcd_write_data_16bit
;;;1755   		lcd_write_data_16bit(0x00);
0023a6  2000              MOVS     r0,#0
0023a8  f7fffffe          BL       lcd_write_data_16bit
;;;1756   		lcd_wr_reg(0xB6);		//Set vertical period
0023ac  20b6              MOVS     r0,#0xb6
0023ae  f7fffffe          BL       lcd_wr_reg
;;;1757   		lcd_write_data_16bit((SSD_VT-1)>>8);
0023b2  2002              MOVS     r0,#2
0023b4  f7fffffe          BL       lcd_write_data_16bit
;;;1758   		lcd_write_data_16bit(SSD_VT-1);
0023b8  f44f7003          MOV      r0,#0x20c
0023bc  f7fffffe          BL       lcd_write_data_16bit
;;;1759   		lcd_write_data_16bit(SSD_VPS>>8);
0023c0  2000              MOVS     r0,#0
0023c2  f7fffffe          BL       lcd_write_data_16bit
;;;1760   		lcd_write_data_16bit(SSD_VPS);
0023c6  2017              MOVS     r0,#0x17
0023c8  f7fffffe          BL       lcd_write_data_16bit
;;;1761   		lcd_write_data_16bit(SSD_VER_FRONT_PORCH-1);
0023cc  2015              MOVS     r0,#0x15
0023ce  f7fffffe          BL       lcd_write_data_16bit
;;;1762   		lcd_write_data_16bit(0x00);
0023d2  2000              MOVS     r0,#0
0023d4  f7fffffe          BL       lcd_write_data_16bit
;;;1763   		lcd_write_data_16bit(0x00);
0023d8  2000              MOVS     r0,#0
0023da  f7fffffe          BL       lcd_write_data_16bit
;;;1764   		
;;;1765   		lcd_wr_reg(0xF0);	//设置SSD1963与CPU接口为16bit  
0023de  20f0              MOVS     r0,#0xf0
0023e0  f7fffffe          BL       lcd_wr_reg
;;;1766   		lcd_write_data_16bit(0x03);	//16-bit(565 format) data for 16bpp 
0023e4  2003              MOVS     r0,#3
0023e6  f7fffffe          BL       lcd_write_data_16bit
;;;1767   
;;;1768   		lcd_wr_reg(0x29);	//开启显示
0023ea  2029              MOVS     r0,#0x29
0023ec  f7fffffe          BL       lcd_wr_reg
;;;1769   		//设置PWM输出  背光通过占空比可调 
;;;1770   		lcd_wr_reg(0xD0);	//设置自动白平衡DBC
0023f0  20d0              MOVS     r0,#0xd0
0023f2  f7fffffe          BL       lcd_wr_reg
;;;1771   		lcd_write_data_16bit(0x00);	//disable
0023f6  2000              MOVS     r0,#0
0023f8  f7fffffe          BL       lcd_write_data_16bit
;;;1772   	
;;;1773   		lcd_wr_reg(0xBE);	//配置PWM输出
0023fc  20be              MOVS     r0,#0xbe
0023fe  f7fffffe          BL       lcd_wr_reg
;;;1774   		lcd_write_data_16bit(0x05);	//1设置PWM频率
002402  2005              MOVS     r0,#5
002404  f7fffffe          BL       lcd_write_data_16bit
;;;1775   		lcd_write_data_16bit(0xFE);	//2设置PWM占空比
002408  20fe              MOVS     r0,#0xfe
00240a  f7fffffe          BL       lcd_write_data_16bit
;;;1776   		lcd_write_data_16bit(0x01);	//3设置C
00240e  2001              MOVS     r0,#1
002410  f7fffffe          BL       lcd_write_data_16bit
;;;1777   		lcd_write_data_16bit(0x00);	//4设置D
002414  2000              MOVS     r0,#0
002416  f7fffffe          BL       lcd_write_data_16bit
;;;1778   		lcd_write_data_16bit(0x00);	//5设置E 
00241a  2000              MOVS     r0,#0
00241c  f7fffffe          BL       lcd_write_data_16bit
;;;1779   		lcd_write_data_16bit(0x00);	//6设置F 
002420  2000              MOVS     r0,#0
002422  f7fffffe          BL       lcd_write_data_16bit
;;;1780   		
;;;1781   		lcd_wr_reg(0xB8);	//设置GPIO配置
002426  20b8              MOVS     r0,#0xb8
002428  f7fffffe          BL       lcd_wr_reg
;;;1782   		lcd_write_data_16bit(0x03);	//2个IO口设置成输出
00242c  2003              MOVS     r0,#3
00242e  f7fffffe          BL       lcd_write_data_16bit
;;;1783   		lcd_write_data_16bit(0x01);	//GPIO使用正常的IO功能 
002432  2001              MOVS     r0,#1
002434  f7fffffe          BL       lcd_write_data_16bit
;;;1784   		lcd_wr_reg(0xBA);
002438  20ba              MOVS     r0,#0xba
00243a  f7fffffe          BL       lcd_wr_reg
;;;1785   		lcd_write_data_16bit(0X01);	//GPIO[1:0]=01,控制LCD方向
00243e  2001              MOVS     r0,#1
002440  f7fffffe          BL       lcd_write_data_16bit
;;;1786   		
;;;1787   		lcd_ssd_back_light_set(100);//背光设置为最亮
002444  2064              MOVS     r0,#0x64
002446  f7fffffe          BL       lcd_ssd_back_light_set
                  |L13.9290|
;;;1788   	}	 
;;;1789   	//初始化完成以后,提速
;;;1790   	if(lcd_dev.id==0X9341||lcd_dev.id==0X5310||lcd_dev.id==0X5510||lcd_dev.id==0X1963)//如果是这几个IC,则设置WR时序为最快
00244a  f8b90004          LDRH     r0,[r9,#4]  ; lcd_dev
00244e  4550              CMP      r0,r10
002450  d005              BEQ      |L13.9310|
002452  42b0              CMP      r0,r6
002454  d003              BEQ      |L13.9310|
002456  42a8              CMP      r0,r5
002458  d001              BEQ      |L13.9310|
00245a  42b8              CMP      r0,r7
00245c  d117              BNE      |L13.9358|
                  |L13.9310|
;;;1791   	{
;;;1792   		//重新配置写时序控制寄存器的时序   	 							    
;;;1793   		FMC_Bank1E->BWTR[0]&=~(0XF<<0);	//地址建立时间(ADDSET)清零 	 
00245e  f8d40104          LDR      r0,[r4,#0x104]
002462  f020000f          BIC      r0,r0,#0xf
002466  f8c40104          STR      r0,[r4,#0x104]
;;;1794   		FMC_Bank1E->BWTR[0]&=~(0XF<<8);	//数据保存时间清零
00246a  f8d40104          LDR      r0,[r4,#0x104]
00246e  f4206070          BIC      r0,r0,#0xf00
002472  f8c40104          STR      r0,[r4,#0x104]
;;;1795   		FMC_Bank1E->BWTR[0]|=4<<0;	 	//地址建立时间(ADDSET)为4个HCLK =21ns  	 
002476  f8d40104          LDR      r0,[r4,#0x104]
00247a  f0400004          ORR      r0,r0,#4
00247e  f8c40104          STR      r0,[r4,#0x104]
;;;1796   		FMC_Bank1E->BWTR[0]|=4<<8; 		//数据保存时间(DATAST)为5.2ns*4个HCLK=21ns
002482  f8d40104          LDR      r0,[r4,#0x104]
002486  f4406080          ORR      r0,r0,#0x400
00248a  f8c40104          STR      r0,[r4,#0x104]
                  |L13.9358|
;;;1797   	} 
;;;1798   	lcd_display_dir(0);		//默认为竖屏
00248e  2000              MOVS     r0,#0
002490  f7fffffe          BL       lcd_display_dir
;;;1799   	LCD_BACK_LIGHT=1;				//点亮背光
002494  4903              LDR      r1,|L13.9380|
002496  f8c18294          STR      r8,[r1,#0x294]
;;;1800   	lcd_clear(WHITE);
00249a  4658              MOV      r0,r11
00249c  e8bd5ffc          POP      {r2-r12,lr}
0024a0  f7ffbffe          B.W      lcd_clear
;;;1801   }  
;;;1802   //清屏函数
                          ENDP

                  |L13.9380|
                          DCD      0x42408000

                          AREA ||i.LCD_Pow||, CODE, READONLY, ALIGN=1

                  LCD_Pow PROC
;;;1958   //返回值:m^n次方.
;;;1959   u32 LCD_Pow(u8 m,u8 n)
000000  4603              MOV      r3,r0
;;;1960   {
;;;1961   	u32 result=1;	 
000002  2001              MOVS     r0,#1
000004  e000              B        |L14.8|
                  |L14.6|
;;;1962   	while(n--)result*=m;    
000006  4358              MULS     r0,r3,r0
                  |L14.8|
000008  1e49              SUBS     r1,r1,#1
00000a  b2c9              UXTB     r1,r1
00000c  d2fb              BCS      |L14.6|
;;;1963   	return result;
;;;1964   }			 
00000e  4770              BX       lr
;;;1965   //显示数字,高位为0,则不显示
                          ENDP


                          AREA ||i.lcd_read_data_16bit||, CODE, READONLY, ALIGN=2

                  lcd_read_data_16bit PROC
;;;45     //返回值:读到的值
;;;46     u16 lcd_read_data_16bit(void)
000000  4803              LDR      r0,|L15.16|
;;;47     {
000002  b508              PUSH     {r3,lr}
;;;48     	vu16 ram;			//防止被优化
;;;49     	ram=LCD->lcd_ram;	
000004  8800              LDRH     r0,[r0,#0]
000006  f8ad0000          STRH     r0,[sp,#0]
;;;50     	return ram;	 
00000a  f8bd0000          LDRH     r0,[sp,#0]
;;;51     }					   
00000e  bd08              POP      {r3,pc}
;;;52     //写寄存器
                          ENDP

                  |L15.16|
                          DCD      0x60080000

                          AREA ||i.lcd_read_point||, CODE, READONLY, ALIGN=2

                  lcd_read_point PROC
;;;101    //返回值:此点的颜色
;;;102    u32 lcd_read_point(u16 x,u16 y)
000000  b510              PUSH     {r4,lr}
;;;103    {
;;;104    	
;;;105    //	malloc();
;;;106    	
;;;107     	u16 r=0,g=0,b=0;
;;;108    	if(x>=lcd_dev.width||y>=lcd_dev.height)return 0;	//超过了范围,直接返回 
000002  4c20              LDR      r4,|L16.132|
000004  8822              LDRH     r2,[r4,#0]  ; lcd_dev
000006  4282              CMP      r2,r0
000008  d902              BLS      |L16.16|
00000a  8862              LDRH     r2,[r4,#2]  ; lcd_dev
00000c  428a              CMP      r2,r1
00000e  d801              BHI      |L16.20|
                  |L16.16|
000010  2000              MOVS     r0,#0
                  |L16.18|
;;;109    	lcd_set_cursor(x,y);	    
;;;110    	if(lcd_dev.id==0X9341||lcd_dev.id==0X5310||lcd_dev.id==0X1963)lcd_wr_reg(0X2E);//9341/3510/1963 发送读GRAM指令
;;;111    	else if(lcd_dev.id==0X5510)lcd_wr_reg(0X2E00);	//5510 发送读GRAM指令
;;;112     	r=lcd_read_data_16bit();								//dummy Read	   
;;;113    	if(lcd_dev.id==0X1963)return r;					//1963直接读就可以 
;;;114    	opt_delay(2);	  
;;;115     	r=lcd_read_data_16bit();  		  						//实际坐标颜色
;;;116    	//9341/NT35310/NT35510要分2次读出 
;;;117    	opt_delay(2);	  
;;;118    	b=lcd_read_data_16bit(); 
;;;119    	g=r&0XFF;		//对于9341/5310/5510,第一次读取的是RG的值,R在前,G在后,各占8位
;;;120    	g<<=8; 
;;;121    	return (((r>>11)<<11)|((g>>10)<<5)|(b>>11));	//ILI9341/NT35310/NT35510需要公式转换一下
;;;122    }			 
000012  bd10              POP      {r4,pc}
                  |L16.20|
000014  f7fffffe          BL       lcd_set_cursor
000018  88a0              LDRH     r0,[r4,#4]            ;110  ; lcd_dev
00001a  f6411263          MOV      r2,#0x1963            ;110
00001e  f5a04113          SUB      r1,r0,#0x9300         ;110
000022  3941              SUBS     r1,r1,#0x41           ;110
000024  d005              BEQ      |L16.50|
000026  f5a041a6          SUB      r1,r0,#0x5300         ;110
00002a  3910              SUBS     r1,r1,#0x10           ;110
00002c  d001              BEQ      |L16.50|
00002e  4290              CMP      r0,r2                 ;110
000030  d101              BNE      |L16.54|
                  |L16.50|
000032  202e              MOVS     r0,#0x2e              ;110
000034  e005              B        |L16.66|
                  |L16.54|
000036  f5a041aa          SUB      r1,r0,#0x5500         ;111
00003a  3910              SUBS     r1,r1,#0x10           ;111
00003c  d103              BNE      |L16.70|
00003e  f44f5038          MOV      r0,#0x2e00            ;111
                  |L16.66|
000042  f7fffffe          BL       lcd_wr_reg
                  |L16.70|
000046  f7fffffe          BL       lcd_read_data_16bit
00004a  88a1              LDRH     r1,[r4,#4]            ;113  ; lcd_dev
00004c  4291              CMP      r1,r2                 ;113
00004e  d0e0              BEQ      |L16.18|
000050  2002              MOVS     r0,#2                 ;114
                  |L16.82|
000052  1e40              SUBS     r0,r0,#1              ;114
000054  b2c0              UXTB     r0,r0                 ;114
000056  d2fc              BCS      |L16.82|
000058  f7fffffe          BL       lcd_read_data_16bit
00005c  4604              MOV      r4,r0                 ;115
00005e  2102              MOVS     r1,#2                 ;117
                  |L16.96|
000060  1e49              SUBS     r1,r1,#1              ;117
000062  b2c9              UXTB     r1,r1                 ;117
000064  d2fc              BCS      |L16.96|
000066  f7fffffe          BL       lcd_read_data_16bit
00006a  b2e1              UXTB     r1,r4                 ;119
00006c  f64f72ff          MOV      r2,#0xffff            ;120
000070  ea022101          AND      r1,r2,r1,LSL #8       ;120
000074  ea241262          BIC      r2,r4,r2,ASR #5       ;121
000078  0a89              LSRS     r1,r1,#10             ;121
00007a  ea421141          ORR      r1,r2,r1,LSL #5       ;121
00007e  ea4120d0          ORR      r0,r1,r0,LSR #11      ;121
000082  bd10              POP      {r4,pc}
;;;123    //LCD开启显示
                          ENDP

                  |L16.132|
                          DCD      ||.bss||

                          AREA ||i.lcd_read_reg_data||, CODE, READONLY, ALIGN=1

                  lcd_read_reg_data PROC
;;;62     //返回值:读到的数据
;;;63     u16 lcd_read_reg_data(u16 LCD_Reg)
000000  b510              PUSH     {r4,lr}
;;;64     {										   
;;;65     	lcd_wr_reg(LCD_Reg);		//写入要读的寄存器序号
000002  f7fffffe          BL       lcd_wr_reg
;;;66     	delay_us(5);		  
000006  2005              MOVS     r0,#5
000008  f7fffffe          BL       delay_us
;;;67     	return lcd_read_data_16bit();		//返回读到的值
00000c  e8bd4010          POP      {r4,lr}
000010  f7ffbffe          B.W      lcd_read_data_16bit
;;;68     }   
;;;69     //开始写GRAM
                          ENDP


                          AREA ||i.lcd_ssd_back_light_set||, CODE, READONLY, ALIGN=2

                  lcd_ssd_back_light_set PROC
;;;310    //pwm:背光等级,0~100.越大越亮.
;;;311    void lcd_ssd_back_light_set(u8 pwm)
000000  b510              PUSH     {r4,lr}
;;;312    {	
000002  4602              MOV      r2,r0
;;;313    	lcd_wr_reg(0xBE);	//配置PWM输出
000004  20be              MOVS     r0,#0xbe
000006  f7fffffe          BL       lcd_wr_reg
;;;314    	lcd_write_data_16bit(0x05);	//1设置PWM频率
00000a  2005              MOVS     r0,#5
00000c  f7fffffe          BL       lcd_write_data_16bit
;;;315    	lcd_write_data_16bit(pwm*2.55);//2设置PWM占空比
000010  4610              MOV      r0,r2
000012  f7fffffe          BL       __aeabi_ui2d
000016  ed9f1b0c          VLDR     d1,|L18.72|
00001a  ec532b11          VMOV     r2,r3,d1
00001e  f7fffffe          BL       __aeabi_dmul
000022  f7fffffe          BL       __aeabi_d2uiz
000026  b280              UXTH     r0,r0
000028  f7fffffe          BL       lcd_write_data_16bit
;;;316    	lcd_write_data_16bit(0x01);	//3设置C
00002c  2001              MOVS     r0,#1
00002e  f7fffffe          BL       lcd_write_data_16bit
;;;317    	lcd_write_data_16bit(0xFF);	//4设置D
000032  20ff              MOVS     r0,#0xff
000034  f7fffffe          BL       lcd_write_data_16bit
;;;318    	lcd_write_data_16bit(0x00);	//5设置E
000038  2000              MOVS     r0,#0
00003a  f7fffffe          BL       lcd_write_data_16bit
;;;319    	lcd_write_data_16bit(0x00);	//6设置F
00003e  e8bd4010          POP      {r4,lr}
000042  2000              MOVS     r0,#0
000044  f7ffbffe          B.W      lcd_write_data_16bit
;;;320    }
;;;321    
                          ENDP

                  |L18.72|
000048  66666666          DCFD     0x4004666666666666 ; 2.5499999999999998
00004c  40046666

                          AREA ||i.lcd_scan_dir||, CODE, READONLY, ALIGN=2

                  lcd_scan_dir PROC
;;;176    //9341/5310/5510/1963等IC已经实际测试	   	   
;;;177    void lcd_scan_dir(u8 dir)
000000  b5f0              PUSH     {r4-r7,lr}
;;;178    {
;;;179    	u16 regval=0;
;;;180    	u16 dirreg=0;
;;;181    	u16 temp;  
;;;182    	if((lcd_dev.dir==1&&lcd_dev.id!=0X1963)||(lcd_dev.dir==0&&lcd_dev.id==0X1963))//横屏时，对1963不改变扫描方向！竖屏时1963改变方向
000002  4d6c              LDR      r5,|L19.436|
000004  2300              MOVS     r3,#0                 ;179
000006  4629              MOV      r1,r5
000008  79aa              LDRB     r2,[r5,#6]  ; lcd_dev
00000a  8889              LDRH     r1,[r1,#4]
00000c  f6411463          MOV      r4,#0x1963
000010  2a01              CMP      r2,#1
000012  d001              BEQ      |L19.24|
000014  b11a              CBZ      r2,|L19.30|
000016  e01b              B        |L19.80|
                  |L19.24|
000018  42a1              CMP      r1,r4
00001a  d102              BNE      |L19.34|
00001c  e018              B        |L19.80|
                  |L19.30|
00001e  42a1              CMP      r1,r4
000020  d116              BNE      |L19.80|
                  |L19.34|
;;;183    	{			   
;;;184    		switch(dir)//方向转换
000022  2808              CMP      r0,#8
000024  d214              BCS      |L19.80|
000026  e8dff000          TBB      [pc,r0]
00002a  0406              DCB      0x04,0x06
00002c  080a0c0e          DCB      0x08,0x0a,0x0c,0x0e
000030  1012              DCB      0x10,0x12
;;;185    		{
;;;186    			case 0:dir=6;break;
000032  2006              MOVS     r0,#6
000034  e00c              B        |L19.80|
;;;187    			case 1:dir=7;break;
000036  2007              MOVS     r0,#7
000038  e00a              B        |L19.80|
;;;188    			case 2:dir=4;break;
00003a  2004              MOVS     r0,#4
00003c  e008              B        |L19.80|
;;;189    			case 3:dir=5;break;
00003e  2005              MOVS     r0,#5
000040  e006              B        |L19.80|
;;;190    			case 4:dir=1;break;
000042  2001              MOVS     r0,#1
000044  e004              B        |L19.80|
;;;191    			case 5:dir=0;break;
000046  2000              MOVS     r0,#0
000048  e002              B        |L19.80|
;;;192    			case 6:dir=3;break;
00004a  2003              MOVS     r0,#3
00004c  e000              B        |L19.80|
;;;193    			case 7:dir=2;break;	     
00004e  2002              MOVS     r0,#2
                  |L19.80|
;;;194    		}
;;;195    	} 
;;;196    	if(lcd_dev.id==0x9341||lcd_dev.id==0X5310||lcd_dev.id==0X5510||lcd_dev.id==0X1963)//9341/5310/5510/1963,特殊处理
000050  f5a14713          SUB      r7,r1,#0x9300
000054  f2453210          MOV      r2,#0x5310
000058  f2455610          MOV      r6,#0x5510
00005c  3f41              SUBS     r7,r7,#0x41
00005e  d005              BEQ      |L19.108|
000060  4291              CMP      r1,r2
000062  d003              BEQ      |L19.108|
000064  42b1              CMP      r1,r6
000066  d001              BEQ      |L19.108|
000068  42a1              CMP      r1,r4
00006a  d177              BNE      |L19.348|
                  |L19.108|
;;;197    	{
;;;198    		switch(dir)
00006c  2808              CMP      r0,#8
00006e  d212              BCS      |L19.150|
000070  e8dff000          TBB      [pc,r0]
000074  11040608          DCB      0x11,0x04,0x06,0x08
000078  0a0c0e10          DCB      0x0a,0x0c,0x0e,0x10
;;;199    		{
;;;200    			case L2R_U2D://从左到右,从上到下
;;;201    				regval|=(0<<7)|(0<<6)|(0<<5); 
;;;202    				break;
;;;203    			case L2R_D2U://从左到右,从下到上
;;;204    				regval|=(1<<7)|(0<<6)|(0<<5); 
00007c  2380              MOVS     r3,#0x80
;;;205    				break;
00007e  e00a              B        |L19.150|
;;;206    			case R2L_U2D://从右到左,从上到下
;;;207    				regval|=(0<<7)|(1<<6)|(0<<5); 
000080  2340              MOVS     r3,#0x40
;;;208    				break;
000082  e008              B        |L19.150|
;;;209    			case R2L_D2U://从右到左,从下到上
;;;210    				regval|=(1<<7)|(1<<6)|(0<<5); 
000084  23c0              MOVS     r3,#0xc0
;;;211    				break;	 
000086  e006              B        |L19.150|
;;;212    			case U2D_L2R://从上到下,从左到右
;;;213    				regval|=(0<<7)|(0<<6)|(1<<5); 
000088  2320              MOVS     r3,#0x20
;;;214    				break;
00008a  e004              B        |L19.150|
;;;215    			case U2D_R2L://从上到下,从右到左
;;;216    				regval|=(0<<7)|(1<<6)|(1<<5); 
00008c  2360              MOVS     r3,#0x60
;;;217    				break;
00008e  e002              B        |L19.150|
;;;218    			case D2U_L2R://从下到上,从左到右
;;;219    				regval|=(1<<7)|(0<<6)|(1<<5); 
000090  23a0              MOVS     r3,#0xa0
;;;220    				break;
000092  e000              B        |L19.150|
;;;221    			case D2U_R2L://从下到上,从右到左
;;;222    				regval|=(1<<7)|(1<<6)|(1<<5); 
000094  23e0              MOVS     r3,#0xe0
                  |L19.150|
;;;223    				break;	 
;;;224    		}
;;;225    		if(lcd_dev.id==0X5510)dirreg=0X3600;
000096  42b1              CMP      r1,r6
000098  d102              BNE      |L19.160|
00009a  f44f5058          MOV      r0,#0x3600
00009e  e000              B        |L19.162|
                  |L19.160|
;;;226    		else dirreg=0X36;
0000a0  2036              MOVS     r0,#0x36
                  |L19.162|
;;;227     		if((lcd_dev.id!=0X5310)&&(lcd_dev.id!=0X5510)&&(lcd_dev.id!=0X1963))regval|=0X08;//5310/5510/1963不需要BGR   
0000a2  4291              CMP      r1,r2
0000a4  d005              BEQ      |L19.178|
0000a6  42b1              CMP      r1,r6
0000a8  d003              BEQ      |L19.178|
0000aa  42a1              CMP      r1,r4
0000ac  d001              BEQ      |L19.178|
0000ae  f0430308          ORR      r3,r3,#8
                  |L19.178|
;;;228     		lcd_write_reg_data(dirreg,regval);
0000b2  4619              MOV      r1,r3
0000b4  f7fffffe          BL       lcd_write_reg_data
;;;229    		if(lcd_dev.id!=0X1963)//1963不做坐标处理
0000b8  88aa              LDRH     r2,[r5,#4]  ; lcd_dev
0000ba  42a2              CMP      r2,r4
0000bc  d00a              BEQ      |L19.212|
;;;230    		{
;;;231    			if(regval&0X20)
0000be  0698              LSLS     r0,r3,#26
;;;232    			{
;;;233    				if(lcd_dev.width<lcd_dev.height)//交换X,Y
;;;234    				{
;;;235    					temp=lcd_dev.width;
;;;236    					lcd_dev.width=lcd_dev.height;
;;;237    					lcd_dev.height=temp;
;;;238    				}
;;;239    			}else  
;;;240    			{
;;;241    				if(lcd_dev.width>lcd_dev.height)//交换X,Y
0000c0  8828              LDRH     r0,[r5,#0]  ; lcd_dev
0000c2  8869              LDRH     r1,[r5,#2]  ; lcd_dev
0000c4  d502              BPL      |L19.204|
0000c6  4288              CMP      r0,r1                 ;233
0000c8  d302              BCC      |L19.208|
0000ca  e003              B        |L19.212|
                  |L19.204|
0000cc  4288              CMP      r0,r1
0000ce  d901              BLS      |L19.212|
                  |L19.208|
;;;242    				{
;;;243    					temp=lcd_dev.width;
;;;244    					lcd_dev.width=lcd_dev.height;
0000d0  8029              STRH     r1,[r5,#0]
;;;245    					lcd_dev.height=temp;
0000d2  8068              STRH     r0,[r5,#2]
                  |L19.212|
;;;246    				}
;;;247    			}  
;;;248    		}
;;;249    		if(lcd_dev.id==0X5510)
;;;250    		{
;;;251    			lcd_wr_reg(lcd_dev.setx_cmd);lcd_write_data_16bit(0); 
;;;252    			lcd_wr_reg(lcd_dev.setx_cmd+1);lcd_write_data_16bit(0); 
;;;253    			lcd_wr_reg(lcd_dev.setx_cmd+2);lcd_write_data_16bit((lcd_dev.width-1)>>8); 
;;;254    			lcd_wr_reg(lcd_dev.setx_cmd+3);lcd_write_data_16bit((lcd_dev.width-1)&0XFF); 
;;;255    			lcd_wr_reg(lcd_dev.sety_cmd);lcd_write_data_16bit(0); 
;;;256    			lcd_wr_reg(lcd_dev.sety_cmd+1);lcd_write_data_16bit(0); 
;;;257    			lcd_wr_reg(lcd_dev.sety_cmd+2);lcd_write_data_16bit((lcd_dev.height-1)>>8); 
;;;258    			lcd_wr_reg(lcd_dev.sety_cmd+3);lcd_write_data_16bit((lcd_dev.height-1)&0XFF);
;;;259    		}else
;;;260    		{
;;;261    			lcd_wr_reg(lcd_dev.setx_cmd); 
0000d4  8968              LDRH     r0,[r5,#0xa]  ; lcd_dev
0000d6  42b2              CMP      r2,r6                 ;249
0000d8  d141              BNE      |L19.350|
0000da  f7fffffe          BL       lcd_wr_reg
0000de  2000              MOVS     r0,#0                 ;251
0000e0  f7fffffe          BL       lcd_write_data_16bit
0000e4  8968              LDRH     r0,[r5,#0xa]          ;252  ; lcd_dev
0000e6  1c40              ADDS     r0,r0,#1              ;252
0000e8  b280              UXTH     r0,r0                 ;252
0000ea  f7fffffe          BL       lcd_wr_reg
0000ee  2000              MOVS     r0,#0                 ;252
0000f0  f7fffffe          BL       lcd_write_data_16bit
0000f4  8968              LDRH     r0,[r5,#0xa]          ;253  ; lcd_dev
0000f6  1c80              ADDS     r0,r0,#2              ;253
0000f8  b280              UXTH     r0,r0                 ;253
0000fa  f7fffffe          BL       lcd_wr_reg
0000fe  8828              LDRH     r0,[r5,#0]            ;253  ; lcd_dev
000100  1e40              SUBS     r0,r0,#1              ;253
000102  f3c0200f          UBFX     r0,r0,#8,#16          ;253
000106  f7fffffe          BL       lcd_write_data_16bit
00010a  8968              LDRH     r0,[r5,#0xa]          ;254  ; lcd_dev
00010c  1cc0              ADDS     r0,r0,#3              ;254
00010e  b280              UXTH     r0,r0                 ;254
000110  f7fffffe          BL       lcd_wr_reg
000114  7828              LDRB     r0,[r5,#0]            ;254  ; lcd_dev
000116  1e40              SUBS     r0,r0,#1              ;254
000118  b2c0              UXTB     r0,r0                 ;254
00011a  f7fffffe          BL       lcd_write_data_16bit
00011e  89a8              LDRH     r0,[r5,#0xc]          ;255  ; lcd_dev
000120  f7fffffe          BL       lcd_wr_reg
000124  2000              MOVS     r0,#0                 ;255
000126  f7fffffe          BL       lcd_write_data_16bit
00012a  89a8              LDRH     r0,[r5,#0xc]          ;256  ; lcd_dev
00012c  1c40              ADDS     r0,r0,#1              ;256
00012e  b280              UXTH     r0,r0                 ;256
000130  f7fffffe          BL       lcd_wr_reg
000134  2000              MOVS     r0,#0                 ;256
000136  f7fffffe          BL       lcd_write_data_16bit
00013a  89a8              LDRH     r0,[r5,#0xc]          ;257  ; lcd_dev
00013c  1c80              ADDS     r0,r0,#2              ;257
00013e  b280              UXTH     r0,r0                 ;257
000140  f7fffffe          BL       lcd_wr_reg
000144  8868              LDRH     r0,[r5,#2]            ;257  ; lcd_dev
000146  1e40              SUBS     r0,r0,#1              ;257
000148  f3c0200f          UBFX     r0,r0,#8,#16          ;257
00014c  f7fffffe          BL       lcd_write_data_16bit
000150  89a8              LDRH     r0,[r5,#0xc]          ;258  ; lcd_dev
000152  1cc0              ADDS     r0,r0,#3              ;258
000154  b280              UXTH     r0,r0                 ;258
000156  f7fffffe          BL       lcd_wr_reg
00015a  e022              B        |L19.418|
                  |L19.348|
00015c  e028              B        |L19.432|
                  |L19.350|
00015e  f7fffffe          BL       lcd_wr_reg
;;;262    			lcd_write_data_16bit(0);lcd_write_data_16bit(0);
000162  2000              MOVS     r0,#0
000164  f7fffffe          BL       lcd_write_data_16bit
000168  2000              MOVS     r0,#0
00016a  f7fffffe          BL       lcd_write_data_16bit
;;;263    			lcd_write_data_16bit((lcd_dev.width-1)>>8);lcd_write_data_16bit((lcd_dev.width-1)&0XFF);
00016e  8828              LDRH     r0,[r5,#0]  ; lcd_dev
000170  1e40              SUBS     r0,r0,#1
000172  f3c0200f          UBFX     r0,r0,#8,#16
000176  f7fffffe          BL       lcd_write_data_16bit
00017a  7828              LDRB     r0,[r5,#0]  ; lcd_dev
00017c  1e40              SUBS     r0,r0,#1
00017e  b2c0              UXTB     r0,r0
000180  f7fffffe          BL       lcd_write_data_16bit
;;;264    			lcd_wr_reg(lcd_dev.sety_cmd); 
000184  89a8              LDRH     r0,[r5,#0xc]  ; lcd_dev
000186  f7fffffe          BL       lcd_wr_reg
;;;265    			lcd_write_data_16bit(0);lcd_write_data_16bit(0);
00018a  2000              MOVS     r0,#0
00018c  f7fffffe          BL       lcd_write_data_16bit
000190  2000              MOVS     r0,#0
000192  f7fffffe          BL       lcd_write_data_16bit
;;;266    			lcd_write_data_16bit((lcd_dev.height-1)>>8);lcd_write_data_16bit((lcd_dev.height-1)&0XFF);  
000196  8868              LDRH     r0,[r5,#2]  ; lcd_dev
000198  1e40              SUBS     r0,r0,#1
00019a  f3c0200f          UBFX     r0,r0,#8,#16
00019e  f7fffffe          BL       lcd_write_data_16bit
                  |L19.418|
0001a2  78a8              LDRB     r0,[r5,#2]  ; lcd_dev
0001a4  e8bd40f0          POP      {r4-r7,lr}
0001a8  1e40              SUBS     r0,r0,#1
0001aa  b2c0              UXTB     r0,r0
0001ac  f7ffbffe          B.W      lcd_write_data_16bit
                  |L19.432|
;;;267    		}
;;;268      	} 
;;;269    }     
0001b0  bdf0              POP      {r4-r7,pc}
;;;270    //画点
                          ENDP

0001b2  0000              DCW      0x0000
                  |L19.436|
                          DCD      ||.bss||

                          AREA ||i.lcd_set_cursor||, CODE, READONLY, ALIGN=2

                  lcd_set_cursor PROC
;;;137    //Ypos:纵坐标
;;;138    void lcd_set_cursor(u16 Xpos, u16 Ypos)
000000  b5f0              PUSH     {r4-r7,lr}
;;;139    {	 
;;;140     	if(lcd_dev.id==0X9341||lcd_dev.id==0X5310)
000002  4d3f              LDR      r5,|L20.256|
000004  460c              MOV      r4,r1                 ;139
000006  4602              MOV      r2,r0                 ;139
;;;141    	{		    
;;;142    		lcd_wr_reg(lcd_dev.setx_cmd); 
;;;143    		lcd_write_data_16bit(Xpos>>8);lcd_write_data_16bit(Xpos&0XFF); 			 
000008  0a06              LSRS     r6,r0,#8
00000a  88a9              LDRH     r1,[r5,#4]            ;140  ; lcd_dev
00000c  4628              MOV      r0,r5                 ;140
;;;144    		lcd_wr_reg(lcd_dev.sety_cmd); 
;;;145    		lcd_write_data_16bit(Ypos>>8);lcd_write_data_16bit(Ypos&0XFF); 		
00000e  0a27              LSRS     r7,r4,#8
000010  8940              LDRH     r0,[r0,#0xa]          ;142
000012  f5a14313          SUB      r3,r1,#0x9300         ;140
000016  3b41              SUBS     r3,r3,#0x41           ;140
000018  d028              BEQ      |L20.108|
00001a  f5a143a6          SUB      r3,r1,#0x5300         ;140
00001e  3b10              SUBS     r3,r3,#0x10           ;140
000020  d024              BEQ      |L20.108|
;;;146    	}else if(lcd_dev.id==0X1963)
000022  f5a153c8          SUB      r3,r1,#0x1900
000026  3b63              SUBS     r3,r3,#0x63
000028  d02f              BEQ      |L20.138|
;;;147    	{  			 		
;;;148    		if(lcd_dev.dir==0)//x坐标需要变换
;;;149    		{
;;;150    			Xpos=lcd_dev.width-1-Xpos;
;;;151    			lcd_wr_reg(lcd_dev.setx_cmd); 
;;;152    			lcd_write_data_16bit(0);lcd_write_data_16bit(0); 		
;;;153    			lcd_write_data_16bit(Xpos>>8);lcd_write_data_16bit(Xpos&0XFF);		 	 
;;;154    		}else
;;;155    		{
;;;156    			lcd_wr_reg(lcd_dev.setx_cmd); 
;;;157    			lcd_write_data_16bit(Xpos>>8);lcd_write_data_16bit(Xpos&0XFF); 		
;;;158    			lcd_write_data_16bit((lcd_dev.width-1)>>8);lcd_write_data_16bit((lcd_dev.width-1)&0XFF);		 	 			
;;;159    		}	
;;;160    		lcd_wr_reg(lcd_dev.sety_cmd); 
;;;161    		lcd_write_data_16bit(Ypos>>8);lcd_write_data_16bit(Ypos&0XFF); 		
;;;162    		lcd_write_data_16bit((lcd_dev.height-1)>>8);lcd_write_data_16bit((lcd_dev.height-1)&0XFF); 			 		
;;;163    		
;;;164    	}else if(lcd_dev.id==0X5510)
00002a  f5a143aa          SUB      r3,r1,#0x5500
00002e  3b10              SUBS     r3,r3,#0x10
000030  d164              BNE      |L20.252|
;;;165    	{
;;;166    		lcd_wr_reg(lcd_dev.setx_cmd);lcd_write_data_16bit(Xpos>>8); 		
000032  f7fffffe          BL       lcd_wr_reg
000036  4630              MOV      r0,r6
000038  f7fffffe          BL       lcd_write_data_16bit
;;;167    		lcd_wr_reg(lcd_dev.setx_cmd+1);lcd_write_data_16bit(Xpos&0XFF);			 
00003c  8968              LDRH     r0,[r5,#0xa]  ; lcd_dev
00003e  1c40              ADDS     r0,r0,#1
000040  b280              UXTH     r0,r0
000042  f7fffffe          BL       lcd_wr_reg
000046  b2d0              UXTB     r0,r2
000048  f7fffffe          BL       lcd_write_data_16bit
;;;168    		lcd_wr_reg(lcd_dev.sety_cmd);lcd_write_data_16bit(Ypos>>8);  		
00004c  89a8              LDRH     r0,[r5,#0xc]  ; lcd_dev
00004e  f7fffffe          BL       lcd_wr_reg
000052  4638              MOV      r0,r7
000054  f7fffffe          BL       lcd_write_data_16bit
;;;169    		lcd_wr_reg(lcd_dev.sety_cmd+1);lcd_write_data_16bit(Ypos&0XFF);			
000058  89a8              LDRH     r0,[r5,#0xc]  ; lcd_dev
00005a  1c40              ADDS     r0,r0,#1
00005c  b280              UXTH     r0,r0
00005e  f7fffffe          BL       lcd_wr_reg
                  |L20.98|
000062  b2e0              UXTB     r0,r4                 ;145
                  |L20.100|
000064  e8bd40f0          POP      {r4-r7,lr}
000068  f7ffbffe          B.W      lcd_write_data_16bit
                  |L20.108|
00006c  f7fffffe          BL       lcd_wr_reg
000070  4630              MOV      r0,r6                 ;142
000072  f7fffffe          BL       lcd_write_data_16bit
000076  b2d0              UXTB     r0,r2                 ;143
000078  f7fffffe          BL       lcd_write_data_16bit
00007c  89a8              LDRH     r0,[r5,#0xc]          ;144  ; lcd_dev
00007e  f7fffffe          BL       lcd_wr_reg
000082  4638              MOV      r0,r7                 ;144
000084  f7fffffe          BL       lcd_write_data_16bit
000088  e7eb              B        |L20.98|
                  |L20.138|
00008a  79a9              LDRB     r1,[r5,#6]            ;148  ; lcd_dev
00008c  b329              CBZ      r1,|L20.218|
00008e  f7fffffe          BL       lcd_wr_reg
000092  4630              MOV      r0,r6                 ;156
000094  f7fffffe          BL       lcd_write_data_16bit
000098  b2d0              UXTB     r0,r2                 ;157
00009a  f7fffffe          BL       lcd_write_data_16bit
00009e  8828              LDRH     r0,[r5,#0]            ;158  ; lcd_dev
0000a0  1e40              SUBS     r0,r0,#1              ;158
0000a2  f3c0200f          UBFX     r0,r0,#8,#16          ;158
0000a6  f7fffffe          BL       lcd_write_data_16bit
0000aa  7828              LDRB     r0,[r5,#0]            ;158  ; lcd_dev
0000ac  1e40              SUBS     r0,r0,#1              ;158
0000ae  b2c0              UXTB     r0,r0                 ;158
                  |L20.176|
0000b0  f7fffffe          BL       lcd_write_data_16bit
0000b4  89a8              LDRH     r0,[r5,#0xc]          ;160  ; lcd_dev
0000b6  f7fffffe          BL       lcd_wr_reg
0000ba  4638              MOV      r0,r7                 ;160
0000bc  f7fffffe          BL       lcd_write_data_16bit
0000c0  b2e0              UXTB     r0,r4                 ;161
0000c2  f7fffffe          BL       lcd_write_data_16bit
0000c6  8868              LDRH     r0,[r5,#2]            ;162  ; lcd_dev
0000c8  1e40              SUBS     r0,r0,#1              ;162
0000ca  f3c0200f          UBFX     r0,r0,#8,#16          ;162
0000ce  f7fffffe          BL       lcd_write_data_16bit
0000d2  78a8              LDRB     r0,[r5,#2]            ;162  ; lcd_dev
0000d4  1e40              SUBS     r0,r0,#1              ;162
0000d6  b2c0              UXTB     r0,r0                 ;162
0000d8  e7c4              B        |L20.100|
                  |L20.218|
0000da  8829              LDRH     r1,[r5,#0]            ;150  ; lcd_dev
0000dc  1a89              SUBS     r1,r1,r2              ;150
0000de  1e49              SUBS     r1,r1,#1              ;150
0000e0  b28a              UXTH     r2,r1                 ;150
0000e2  f7fffffe          BL       lcd_wr_reg
0000e6  2000              MOVS     r0,#0                 ;152
0000e8  f7fffffe          BL       lcd_write_data_16bit
0000ec  2000              MOVS     r0,#0                 ;152
0000ee  f7fffffe          BL       lcd_write_data_16bit
0000f2  0a10              LSRS     r0,r2,#8              ;153
0000f4  f7fffffe          BL       lcd_write_data_16bit
0000f8  b2d0              UXTB     r0,r2                 ;153
0000fa  e7d9              B        |L20.176|
                  |L20.252|
;;;170    	} 
;;;171    } 		 
0000fc  bdf0              POP      {r4-r7,pc}
;;;172    //设置LCD的自动扫描方向(对RGB屏无效)
                          ENDP

0000fe  0000              DCW      0x0000
                  |L20.256|
                          DCD      ||.bss||

                          AREA ||i.lcd_set_window||, CODE, READONLY, ALIGN=2

                  lcd_set_window PROC
;;;391    //窗体大小:width*height. 
;;;392    void lcd_set_window(u16 sx,u16 sy,u16 width,u16 height)
000000  e92d4ffc          PUSH     {r2-r11,lr}
;;;393    {     
000004  460d              MOV      r5,r1
000006  4604              MOV      r4,r0
;;;394    	u16 twidth,theight;
;;;395    	twidth=sx+width-1;
;;;396    	theight=sy+height-1;
000008  4419              ADD      r1,r1,r3
00000a  4410              ADD      r0,r0,r2              ;395
;;;397    	if(lcd_dev.id==0X9341||lcd_dev.id==0X5310||(lcd_dev.dir==1&&lcd_dev.id==0X1963))
00000c  f8df9154          LDR      r9,|L21.356|
000010  1e40              SUBS     r0,r0,#1              ;395
000012  fa1ff880          UXTH     r8,r0                 ;395
000016  1e49              SUBS     r1,r1,#1              ;396
000018  f8b93004          LDRH     r3,[r9,#4]  ; lcd_dev
;;;398    	{
;;;399    		lcd_wr_reg(lcd_dev.setx_cmd); 
;;;400    		lcd_write_data_16bit(sx>>8); 
;;;401    		lcd_write_data_16bit(sx&0XFF);	 
;;;402    		lcd_write_data_16bit(twidth>>8); 
;;;403    		lcd_write_data_16bit(twidth&0XFF);  
;;;404    		lcd_wr_reg(lcd_dev.sety_cmd); 
;;;405    		lcd_write_data_16bit(sy>>8); 
;;;406    		lcd_write_data_16bit(sy&0XFF); 
;;;407    		lcd_write_data_16bit(theight>>8); 
00001c  f3c12007          UBFX     r0,r1,#8,#8
000020  9001              STR      r0,[sp,#4]            ;405
000022  0a28              LSRS     r0,r5,#8              ;405
000024  9000              STR      r0,[sp,#0]            ;395
000026  18a0              ADDS     r0,r4,r2              ;395
000028  1e40              SUBS     r0,r0,#1              ;395
00002a  f3c02b07          UBFX     r11,r0,#8,#8          ;402
00002e  4648              MOV      r0,r9                 ;397
000030  f5a34613          SUB      r6,r3,#0x9300         ;397
000034  8940              LDRH     r0,[r0,#0xa]          ;399
000036  b28f              UXTH     r7,r1                 ;396
000038  ea4f2a14          LSR      r10,r4,#8             ;400
00003c  3e41              SUBS     r6,r6,#0x41           ;397
00003e  d00b              BEQ      |L21.88|
000040  f5a346a6          SUB      r6,r3,#0x5300         ;397
000044  3e10              SUBS     r6,r6,#0x10           ;397
000046  d007              BEQ      |L21.88|
000048  f8996006          LDRB     r6,[r9,#6]            ;397  ; lcd_dev
00004c  f6411c63          MOV      r12,#0x1963           ;397
000050  2e01              CMP      r6,#1                 ;397
000052  d11c              BNE      |L21.142|
000054  4563              CMP      r3,r12                ;397
000056  d11a              BNE      |L21.142|
                  |L21.88|
000058  464a              MOV      r2,r9                 ;399
00005a  f7fffffe          BL       lcd_wr_reg
00005e  4650              MOV      r0,r10                ;399
000060  f7fffffe          BL       lcd_write_data_16bit
000064  b2e0              UXTB     r0,r4                 ;401
000066  f7fffffe          BL       lcd_write_data_16bit
00006a  4658              MOV      r0,r11                ;401
00006c  f7fffffe          BL       lcd_write_data_16bit
000070  f00800ff          AND      r0,r8,#0xff           ;403
000074  f7fffffe          BL       lcd_write_data_16bit
000078  8990              LDRH     r0,[r2,#0xc]          ;404  ; lcd_dev
00007a  f7fffffe          BL       lcd_wr_reg
00007e  9800              LDR      r0,[sp,#0]            ;405
000080  f7fffffe          BL       lcd_write_data_16bit
000084  b2e8              UXTB     r0,r5                 ;406
000086  f7fffffe          BL       lcd_write_data_16bit
;;;408    		lcd_write_data_16bit(theight&0XFF); 
00008a  9801              LDR      r0,[sp,#4]
00008c  e022              B        |L21.212|
                  |L21.142|
;;;409    	}else if(lcd_dev.id==0X1963)//1963竖屏特殊处理
00008e  464e              MOV      r6,r9
000090  4563              CMP      r3,r12
000092  d122              BNE      |L21.218|
;;;410    	{
;;;411    		sx=lcd_dev.width-width-sx; 
000094  8833              LDRH     r3,[r6,#0]  ; lcd_dev
;;;412    		height=sy+height-1; 
000096  b28f              UXTH     r7,r1
000098  1a9b              SUBS     r3,r3,r2              ;411
00009a  1b1b              SUBS     r3,r3,r4              ;411
00009c  b29c              UXTH     r4,r3                 ;411
;;;413    		lcd_wr_reg(lcd_dev.setx_cmd); 
00009e  f7fffffe          BL       lcd_wr_reg
;;;414    		lcd_write_data_16bit(sx>>8); 
0000a2  0a20              LSRS     r0,r4,#8
0000a4  f7fffffe          BL       lcd_write_data_16bit
;;;415    		lcd_write_data_16bit(sx&0XFF);	 
0000a8  b2e0              UXTB     r0,r4
0000aa  f7fffffe          BL       lcd_write_data_16bit
;;;416    		lcd_write_data_16bit((sx+width-1)>>8); 
0000ae  4422              ADD      r2,r2,r4
0000b0  1e52              SUBS     r2,r2,#1
0000b2  f3c2200f          UBFX     r0,r2,#8,#16
0000b6  f7fffffe          BL       lcd_write_data_16bit
;;;417    		lcd_write_data_16bit((sx+width-1)&0XFF);  
0000ba  b2d0              UXTB     r0,r2
0000bc  f7fffffe          BL       lcd_write_data_16bit
;;;418    		lcd_wr_reg(lcd_dev.sety_cmd); 
0000c0  89b0              LDRH     r0,[r6,#0xc]  ; lcd_dev
0000c2  f7fffffe          BL       lcd_wr_reg
;;;419    		lcd_write_data_16bit(sy>>8); 
0000c6  9800              LDR      r0,[sp,#0]
0000c8  f7fffffe          BL       lcd_write_data_16bit
;;;420    		lcd_write_data_16bit(sy&0XFF); 
0000cc  b2e8              UXTB     r0,r5
0000ce  f7fffffe          BL       lcd_write_data_16bit
;;;421    		lcd_write_data_16bit(height>>8); 
0000d2  0a38              LSRS     r0,r7,#8
                  |L21.212|
0000d4  f7fffffe          BL       lcd_write_data_16bit
0000d8  e03c              B        |L21.340|
                  |L21.218|
;;;422    		lcd_write_data_16bit(height&0XFF); 		
;;;423    	}else if(lcd_dev.id==0X5510)
0000da  f5a341aa          SUB      r1,r3,#0x5500
0000de  3910              SUBS     r1,r1,#0x10
0000e0  d13d              BNE      |L21.350|
;;;424    	{
;;;425    		lcd_wr_reg(lcd_dev.setx_cmd);lcd_write_data_16bit(sx>>8);  
0000e2  f7fffffe          BL       lcd_wr_reg
0000e6  4650              MOV      r0,r10
0000e8  f7fffffe          BL       lcd_write_data_16bit
;;;426    		lcd_wr_reg(lcd_dev.setx_cmd+1);lcd_write_data_16bit(sx&0XFF);	  
0000ec  8970              LDRH     r0,[r6,#0xa]  ; lcd_dev
0000ee  1c40              ADDS     r0,r0,#1
0000f0  b280              UXTH     r0,r0
0000f2  f7fffffe          BL       lcd_wr_reg
0000f6  b2e0              UXTB     r0,r4
0000f8  f7fffffe          BL       lcd_write_data_16bit
;;;427    		lcd_wr_reg(lcd_dev.setx_cmd+2);lcd_write_data_16bit(twidth>>8);   
0000fc  8970              LDRH     r0,[r6,#0xa]  ; lcd_dev
0000fe  1c80              ADDS     r0,r0,#2
000100  b280              UXTH     r0,r0
000102  f7fffffe          BL       lcd_wr_reg
000106  4658              MOV      r0,r11
000108  f7fffffe          BL       lcd_write_data_16bit
;;;428    		lcd_wr_reg(lcd_dev.setx_cmd+3);lcd_write_data_16bit(twidth&0XFF);   
00010c  8970              LDRH     r0,[r6,#0xa]  ; lcd_dev
00010e  1cc0              ADDS     r0,r0,#3
000110  b280              UXTH     r0,r0
000112  f7fffffe          BL       lcd_wr_reg
000116  f00800ff          AND      r0,r8,#0xff
00011a  f7fffffe          BL       lcd_write_data_16bit
;;;429    		lcd_wr_reg(lcd_dev.sety_cmd);lcd_write_data_16bit(sy>>8);   
00011e  89b0              LDRH     r0,[r6,#0xc]  ; lcd_dev
000120  f7fffffe          BL       lcd_wr_reg
000124  9800              LDR      r0,[sp,#0]
000126  f7fffffe          BL       lcd_write_data_16bit
;;;430    		lcd_wr_reg(lcd_dev.sety_cmd+1);lcd_write_data_16bit(sy&0XFF);  
00012a  89b0              LDRH     r0,[r6,#0xc]  ; lcd_dev
00012c  1c40              ADDS     r0,r0,#1
00012e  b280              UXTH     r0,r0
000130  f7fffffe          BL       lcd_wr_reg
000134  b2e8              UXTB     r0,r5
000136  f7fffffe          BL       lcd_write_data_16bit
;;;431    		lcd_wr_reg(lcd_dev.sety_cmd+2);lcd_write_data_16bit(theight>>8);   
00013a  89b0              LDRH     r0,[r6,#0xc]  ; lcd_dev
00013c  1c80              ADDS     r0,r0,#2
00013e  b280              UXTH     r0,r0
000140  f7fffffe          BL       lcd_wr_reg
000144  9801              LDR      r0,[sp,#4]
000146  f7fffffe          BL       lcd_write_data_16bit
;;;432    		lcd_wr_reg(lcd_dev.sety_cmd+3);lcd_write_data_16bit(theight&0XFF);  
00014a  89b0              LDRH     r0,[r6,#0xc]  ; lcd_dev
00014c  1cc0              ADDS     r0,r0,#3
00014e  b280              UXTH     r0,r0
000150  f7fffffe          BL       lcd_wr_reg
                  |L21.340|
000154  b2f8              UXTB     r0,r7
000156  e8bd4ffc          POP      {r2-r11,lr}
00015a  f7ffbffe          B.W      lcd_write_data_16bit
                  |L21.350|
;;;433    	} 
;;;434    }
00015e  e8bd8ffc          POP      {r2-r11,pc}
;;;435    //初始化lcd
                          ENDP

000162  0000              DCW      0x0000
                  |L21.356|
                          DCD      ||.bss||

                          AREA ||i.lcd_show_char||, CODE, READONLY, ALIGN=2

                  lcd_show_char PROC
;;;1926   //mode:叠加方式(1)还是非叠加方式(0)
;;;1927   void lcd_show_char(u16 x,u16 y,u8 num,u8 size,u8 mode)
000000  e92d4ff8          PUSH     {r3-r11,lr}
;;;1928   {  							  
000004  4682              MOV      r10,r0
000006  461f              MOV      r7,r3
000008  460e              MOV      r6,r1
;;;1929       u8 temp,t1,t;
;;;1930   	u16 y0=y;
00000a  468b              MOV      r11,r1
;;;1931   	u8 csize=(size/8+((size%8)?1:0))*(size/2);		//得到字体一个字符对应点阵集所占的字节数	
00000c  0758              LSLS     r0,r3,#29
00000e  d000              BEQ      |L22.18|
000010  2001              MOVS     r0,#1
                  |L22.18|
000012  eb0000d7          ADD      r0,r0,r7,LSR #3
000016  0879              LSRS     r1,r7,#1
000018  fb10f001          SMULBB   r0,r0,r1
00001c  3a20              SUBS     r2,r2,#0x20
00001e  b2c0              UXTB     r0,r0
;;;1932    	num=num-' ';//得到偏移后的值（ASCII字库是从空格开始取模，所以-' '就是对应字符的字库）
000020  f00209ff          AND      r9,r2,#0xff
;;;1933   	for(t=0;t<csize;t++)
000024  2500              MOVS     r5,#0
000026  9000              STR      r0,[sp,#0]
000028  e047              B        |L22.186|
                  |L22.42|
;;;1934   	{   
;;;1935   		if(size==12)temp=asc2_1206[num][t]; 	 	//调用1206字体
00002a  2f0c              CMP      r7,#0xc
00002c  d010              BEQ      |L22.80|
;;;1936   		else if(size==16)temp=asc2_1608[num][t];	//调用1608字体
00002e  2f10              CMP      r7,#0x10
000030  d012              BEQ      |L22.88|
;;;1937   		else if(size==24)temp=asc2_2412[num][t];	//调用2412字体
000032  2f18              CMP      r7,#0x18
000034  d014              BEQ      |L22.96|
;;;1938   		else if(size==32)temp=asc2_3216[num][t];	//调用3216字体
000036  2f20              CMP      r7,#0x20
000038  d142              BNE      |L22.192|
00003a  4922              LDR      r1,|L22.196|
00003c  eb0110c9          ADD      r0,r1,r9,LSL #7
                  |L22.64|
;;;1939   		else return;								//没有的字库
;;;1940   		for(t1=0;t1<8;t1++)
000040  f04f0800          MOV      r8,#0
000044  5d44              LDRB     r4,[r0,r5]            ;1938
                  |L22.70|
;;;1941   		{			    
;;;1942   			if(temp&0x80)lcd_fast_draw_point(x,y,point_color);
000046  0620              LSLS     r0,r4,#24
000048  d510              BPL      |L22.108|
00004a  481f              LDR      r0,|L22.200|
00004c  6802              LDR      r2,[r0,#0]  ; point_color
00004e  e011              B        |L22.116|
                  |L22.80|
000050  eb090049          ADD      r0,r9,r9,LSL #1       ;1935
000054  491d              LDR      r1,|L22.204|
000056  e006              B        |L22.102|
                  |L22.88|
000058  491d              LDR      r1,|L22.208|
00005a  eb011009          ADD      r0,r1,r9,LSL #4       ;1936
00005e  e7ef              B        |L22.64|
                  |L22.96|
000060  491c              LDR      r1,|L22.212|
000062  eb0900c9          ADD      r0,r9,r9,LSL #3       ;1937
                  |L22.102|
000066  eb010080          ADD      r0,r1,r0,LSL #2       ;1935
00006a  e7e9              B        |L22.64|
                  |L22.108|
;;;1943   			else if(mode==0)lcd_fast_draw_point(x,y,back_color);
00006c  980a              LDR      r0,[sp,#0x28]
00006e  b928              CBNZ     r0,|L22.124|
000070  4815              LDR      r0,|L22.200|
000072  6842              LDR      r2,[r0,#4]  ; back_color
                  |L22.116|
000074  4631              MOV      r1,r6
000076  4650              MOV      r0,r10
000078  f7fffffe          BL       lcd_fast_draw_point
                  |L22.124|
;;;1944   			temp<<=1;
00007c  0660              LSLS     r0,r4,#25
00007e  0e04              LSRS     r4,r0,#24
;;;1945   			y++;
;;;1946   			if(y>=lcd_dev.height)return;		//超区域了
000080  4815              LDR      r0,|L22.216|
000082  1c76              ADDS     r6,r6,#1              ;1944
000084  b2b6              UXTH     r6,r6                 ;1945
000086  8840              LDRH     r0,[r0,#2]  ; lcd_dev
000088  42b0              CMP      r0,r6
00008a  d919              BLS      |L22.192|
;;;1947   			if((y-y0)==size)
00008c  eba6000b          SUB      r0,r6,r11
000090  42b8              CMP      r0,r7
000092  d109              BNE      |L22.168|
;;;1948   			{
;;;1949   				y=y0;
;;;1950   				x++;
000094  f10a0001          ADD      r0,r10,#1
000098  fa1ffa80          UXTH     r10,r0
;;;1951   				if(x>=lcd_dev.width)return;	//超区域了
00009c  480e              LDR      r0,|L22.216|
00009e  465e              MOV      r6,r11                ;1949
0000a0  8801              LDRH     r1,[r0,#0]  ; lcd_dev
0000a2  4551              CMP      r1,r10
0000a4  d90c              BLS      |L22.192|
0000a6  e006              B        |L22.182|
                  |L22.168|
0000a8  f1080001          ADD      r0,r8,#1              ;1940
0000ac  f00008ff          AND      r8,r0,#0xff           ;1940
0000b0  f1b80f08          CMP      r8,#8                 ;1940
0000b4  d3c7              BCC      |L22.70|
                  |L22.182|
0000b6  1c6d              ADDS     r5,r5,#1              ;1940
0000b8  b2ed              UXTB     r5,r5                 ;1933
                  |L22.186|
0000ba  9800              LDR      r0,[sp,#0]            ;1933
0000bc  4285              CMP      r5,r0                 ;1933
0000be  d3b4              BCC      |L22.42|
                  |L22.192|
;;;1952   				break;
;;;1953   			}
;;;1954   		}  	 
;;;1955   	}  	    	   	 	  
;;;1956   }   
0000c0  e8bd8ff8          POP      {r3-r11,pc}
;;;1957   //m^n函数
                          ENDP

                  |L22.196|
                          DCD      ||.constdata||+0x17c0
                  |L22.200|
                          DCD      ||.data||
                  |L22.204|
                          DCD      ||.constdata||
                  |L22.208|
                          DCD      ||.constdata||+0x474
                  |L22.212|
                          DCD      ||.constdata||+0xa64
                  |L22.216|
                          DCD      ||.bss||

                          AREA ||i.lcd_show_num||, CODE, READONLY, ALIGN=1

                  lcd_show_num PROC
;;;1970   //num:数值(0~4294967295);	 
;;;1971   void lcd_show_num(u16 x,u16 y,u32 num,u8 len,u8 size)
000000  e92d4fff          PUSH     {r0-r11,lr}
;;;1972   {         	
000004  b081              SUB      sp,sp,#4
;;;1973   	u8 t,temp;
;;;1974   	u8 enshow=0;						   
000006  2700              MOVS     r7,#0
;;;1975   	for(t=0;t<len;t++)
;;;1976   	{
;;;1977   		temp=(num/LCD_Pow(10,len-t-1))%10;
;;;1978   		if(enshow==0&&t<(len-1))
;;;1979   		{
;;;1980   			if(temp==0)
;;;1981   			{
;;;1982   				lcd_show_char(x+(size/2)*t,y,' ',size,0);
000008  f8ddb038          LDR      r11,[sp,#0x38]
00000c  461d              MOV      r5,r3                 ;1972
00000e  4692              MOV      r10,r2                ;1972
000010  4680              MOV      r8,r0                 ;1972
000012  463c              MOV      r4,r7                 ;1975
000014  46b9              MOV      r9,r7                 ;1975
000016  ea4f065b          LSR      r6,r11,#1
00001a  e027              B        |L23.108|
                  |L23.28|
00001c  1b28              SUBS     r0,r5,r4              ;1977
00001e  1e40              SUBS     r0,r0,#1              ;1977
000020  b2c1              UXTB     r1,r0                 ;1977
000022  200a              MOVS     r0,#0xa               ;1977
000024  f7fffffe          BL       LCD_Pow
000028  fbbaf0f0          UDIV     r0,r10,r0             ;1977
00002c  210a              MOVS     r1,#0xa               ;1977
00002e  fbb0f2f1          UDIV     r2,r0,r1              ;1977
000032  fb010012          MLS      r0,r1,r2,r0           ;1977
000036  b927              CBNZ     r7,|L23.66|
000038  1e69              SUBS     r1,r5,#1              ;1978
00003a  428c              CMP      r4,r1                 ;1978
00003c  da01              BGE      |L23.66|
00003e  b148              CBZ      r0,|L23.84|
;;;1983   				continue;
;;;1984   			}else enshow=1; 
000040  2701              MOVS     r7,#1
                  |L23.66|
;;;1985   		 	 
;;;1986   		}
;;;1987   	 	lcd_show_char(x+(size/2)*t,y,temp+'0',size,0); 
000042  3030              ADDS     r0,r0,#0x30
000044  b2c2              UXTB     r2,r0
000046  fb068004          MLA      r0,r6,r4,r8
00004a  b280              UXTH     r0,r0
00004c  465b              MOV      r3,r11
00004e  f8cd9000          STR      r9,[sp,#0]            ;1983
000052  e006              B        |L23.98|
                  |L23.84|
000054  fb068004          MLA      r0,r6,r4,r8           ;1982
000058  b280              UXTH     r0,r0                 ;1982
00005a  465b              MOV      r3,r11                ;1982
00005c  2220              MOVS     r2,#0x20              ;1982
00005e  f8cd9000          STR      r9,[sp,#0]            ;1982
                  |L23.98|
000062  9902              LDR      r1,[sp,#8]
000064  f7fffffe          BL       lcd_show_char
000068  1c64              ADDS     r4,r4,#1
00006a  b2e4              UXTB     r4,r4                 ;1975
                  |L23.108|
00006c  42ac              CMP      r4,r5                 ;1975
00006e  d3d5              BCC      |L23.28|
;;;1988   	}
;;;1989   } 
000070  b005              ADD      sp,sp,#0x14
000072  e8bd8ff0          POP      {r4-r11,pc}
;;;1990   //显示数字,高位为0,还是显示
                          ENDP


                          AREA ||i.lcd_show_string||, CODE, READONLY, ALIGN=1

                  lcd_show_string PROC
;;;2023   //*p:字符串起始地址		  
;;;2024   void lcd_show_string(u16 x,u16 y,u16 width,u16 height,u8 size,u8 *p)
000000  e92d4ff8          PUSH     {r3-r11,lr}
;;;2025   {         
000004  4604              MOV      r4,r0
;;;2026   	u8 x0=x;
000006  f00008ff          AND      r8,r0,#0xff
;;;2027   	width+=x;
00000a  1910              ADDS     r0,r2,r4
00000c  460d              MOV      r5,r1                 ;2025
00000e  e9dd760a          LDRD     r7,r6,[sp,#0x28]      ;2025
000012  fa1ffa80          UXTH     r10,r0
;;;2028   	height+=y;
000016  1958              ADDS     r0,r3,r5
000018  fa1ff980          UXTH     r9,r0
00001c  f04f0b00          MOV      r11,#0
000020  e011              B        |L24.70|
                  |L24.34|
;;;2029       while((*p<='~')&&(*p>=' '))//判断是不是非法字符!
;;;2030       {       
;;;2031           if(x>=width){x=x0;y+=size;}
000022  4554              CMP      r4,r10
000024  d302              BCC      |L24.44|
000026  19e8              ADDS     r0,r5,r7
000028  4644              MOV      r4,r8
00002a  b285              UXTH     r5,r0
                  |L24.44|
;;;2032           if(y>=height)break;//退出
00002c  454d              CMP      r5,r9
00002e  d20f              BCS      |L24.80|
;;;2033           lcd_show_char(x,y,*p,size,0);
000030  463b              MOV      r3,r7
000032  4629              MOV      r1,r5
000034  4620              MOV      r0,r4
000036  f8cdb000          STR      r11,[sp,#0]
00003a  f7fffffe          BL       lcd_show_char
;;;2034           x+=size/2;
00003e  eb040057          ADD      r0,r4,r7,LSR #1
000042  b284              UXTH     r4,r0
000044  1c76              ADDS     r6,r6,#1
                  |L24.70|
000046  7832              LDRB     r2,[r6,#0]            ;2029
000048  f1a20020          SUB      r0,r2,#0x20           ;2029
00004c  285e              CMP      r0,#0x5e              ;2029
00004e  d9e8              BLS      |L24.34|
                  |L24.80|
;;;2035           p++;
;;;2036       }  
;;;2037   }
000050  e8bd8ff8          POP      {r3-r11,pc}
;;;2038   
                          ENDP


                          AREA ||i.lcd_show_string_num||, CODE, READONLY, ALIGN=1

                  lcd_show_string_num PROC
;;;1998   //[0]:0,非叠加显示;1,叠加显示.
;;;1999   void lcd_show_string_num(u16 x,u16 y,u32 num,u8 len,u8 size,u8 mode)
000000  e92d4fff          PUSH     {r0-r11,lr}
;;;2000   {  
000004  b081              SUB      sp,sp,#4
000006  4680              MOV      r8,r0
;;;2001   	u8 t,temp;
;;;2002   	u8 enshow=0;						   
;;;2003   	for(t=0;t<len;t++)
;;;2004   	{
;;;2005   		temp=(num/LCD_Pow(10,len-t-1))%10;
;;;2006   		if(enshow==0&&t<(len-1))
;;;2007   		{
;;;2008   			if(temp==0)
;;;2009   			{
;;;2010   				if(mode&0X80)lcd_show_char(x+(size/2)*t,y,'0',size,mode&0X01);  
000008  f8dda03c          LDR      r10,[sp,#0x3c]
00000c  980e              LDR      r0,[sp,#0x38]
00000e  f04f0900          MOV      r9,#0                 ;2002
000012  461f              MOV      r7,r3                 ;2000
000014  4693              MOV      r11,r2                ;2000
000016  464c              MOV      r4,r9                 ;2003
000018  f00a0501          AND      r5,r10,#1
00001c  0846              LSRS     r6,r0,#1
00001e  e02b              B        |L25.120|
                  |L25.32|
000020  1b38              SUBS     r0,r7,r4              ;2005
000022  1e40              SUBS     r0,r0,#1              ;2005
000024  b2c1              UXTB     r1,r0                 ;2005
000026  200a              MOVS     r0,#0xa               ;2005
000028  f7fffffe          BL       LCD_Pow
00002c  fbbbf0f0          UDIV     r0,r11,r0             ;2005
000030  210a              MOVS     r1,#0xa               ;2005
000032  fbb0f2f1          UDIV     r2,r0,r1              ;2005
000036  fb010012          MLS      r0,r1,r2,r0           ;2005
00003a  f1b90f00          CMP      r9,#0                 ;2006
00003e  d105              BNE      |L25.76|
000040  1e79              SUBS     r1,r7,#1              ;2006
000042  428c              CMP      r4,r1                 ;2006
000044  da02              BGE      |L25.76|
000046  b148              CBZ      r0,|L25.92|
;;;2011   				else lcd_show_char(x+(size/2)*t,y,' ',size,mode&0X01);  
;;;2012    				continue;
;;;2013   			}else enshow=1; 
000048  f04f0901          MOV      r9,#1
                  |L25.76|
;;;2014   		 	 
;;;2015   		}
;;;2016   	 	lcd_show_char(x+(size/2)*t,y,temp+'0',size,mode&0X01); 
00004c  3030              ADDS     r0,r0,#0x30
00004e  b2c2              UXTB     r2,r0
000050  fb068004          MLA      r0,r6,r4,r8
000054  b280              UXTH     r0,r0
000056  9500              STR      r5,[sp,#0]
000058  9b0e              LDR      r3,[sp,#0x38]         ;2012
00005a  e008              B        |L25.110|
                  |L25.92|
00005c  ea5f600a          LSLS     r0,r10,#24            ;2010
000060  fb068004          MLA      r0,r6,r4,r8           ;2011
000064  9b0e              LDR      r3,[sp,#0x38]         ;2010
000066  b280              UXTH     r0,r0                 ;2011
000068  9500              STR      r5,[sp,#0]            ;2011
00006a  d50a              BPL      |L25.130|
00006c  2230              MOVS     r2,#0x30              ;2010
                  |L25.110|
00006e  9902              LDR      r1,[sp,#8]
000070  f7fffffe          BL       lcd_show_char
000074  1c64              ADDS     r4,r4,#1
000076  b2e4              UXTB     r4,r4                 ;2003
                  |L25.120|
000078  42bc              CMP      r4,r7                 ;2003
00007a  d3d1              BCC      |L25.32|
;;;2017   	}
;;;2018   } 
00007c  b005              ADD      sp,sp,#0x14
00007e  e8bd8ff0          POP      {r4-r11,pc}
                  |L25.130|
000082  2220              MOVS     r2,#0x20              ;2011
000084  e7f3              B        |L25.110|
;;;2019   //显示字符串
                          ENDP


                          AREA ||i.lcd_write_data_16bit||, CODE, READONLY, ALIGN=2

                  lcd_write_data_16bit PROC
;;;38     //data:要写入的值
;;;39     void lcd_write_data_16bit(vu16 data)
000000  b501              PUSH     {r0,lr}
;;;40     {	  
;;;41     	data=data;			//使用-O2优化的时候,必须插入的延时
000002  f8bd0000          LDRH     r0,[sp,#0]
000006  f8ad0000          STRH     r0,[sp,#0]
;;;42     	LCD->lcd_ram=data;		 
00000a  f8bd0000          LDRH     r0,[sp,#0]
00000e  4901              LDR      r1,|L26.20|
000010  8008              STRH     r0,[r1,#0]
;;;43     }
000012  bd08              POP      {r3,pc}
;;;44     //读LCD数据
                          ENDP

                  |L26.20|
                          DCD      0x60080000

                          AREA ||i.lcd_wr_reg||, CODE, READONLY, ALIGN=2

                  lcd_wr_reg PROC
;;;31     //regval:寄存器值
;;;32     void lcd_wr_reg(vu16 regval)
000000  b501              PUSH     {r0,lr}
;;;33     {   
;;;34     	regval=regval;		//使用-O2优化的时候,必须插入的延时
000002  f8bd0000          LDRH     r0,[sp,#0]
000006  f8ad0000          STRH     r0,[sp,#0]
;;;35     	LCD->lcd_reg=regval;//写入要写的寄存器序号	 
00000a  f8bd0000          LDRH     r0,[sp,#0]
00000e  4901              LDR      r1,|L27.20|
000010  8008              STRH     r0,[r1,#0]
;;;36     }
000012  bd08              POP      {r3,pc}
;;;37     //写LCD数据
                          ENDP

                  |L27.20|
                          DCD      0x6007fffe

                          AREA ||i.lcd_write_ram||, CODE, READONLY, ALIGN=2

                  lcd_write_ram PROC
;;;75     //RGB_Code:颜色值
;;;76     void lcd_write_ram(u16 RGB_Code)
000000  4901              LDR      r1,|L28.8|
;;;77     {							    
;;;78     	LCD->lcd_ram = RGB_Code;//写十六位GRAM
000002  8008              STRH     r0,[r1,#0]
;;;79     }
000004  4770              BX       lr
;;;80     //从ILI93xx读出的数据为GBR格式，而我们写入的时候为RGB格式。
                          ENDP

000006  0000              DCW      0x0000
                  |L28.8|
                          DCD      0x60080000

                          AREA ||i.lcd_write_ram_prepare||, CODE, READONLY, ALIGN=2

                  lcd_write_ram_prepare PROC
;;;69     //开始写GRAM
;;;70     void lcd_write_ram_prepare(void)
000000  4802              LDR      r0,|L29.12|
;;;71     {
;;;72      	LCD->lcd_reg=lcd_dev.wram_cmd;	  
000002  4903              LDR      r1,|L29.16|
000004  8900              LDRH     r0,[r0,#8]  ; lcd_dev
000006  8008              STRH     r0,[r1,#0]
;;;73     }	 
000008  4770              BX       lr
;;;74     //LCD写GRAM
                          ENDP

00000a  0000              DCW      0x0000
                  |L29.12|
                          DCD      ||.bss||
                  |L29.16|
                          DCD      0x6007fffe

                          AREA ||i.lcd_write_reg_data||, CODE, READONLY, ALIGN=2

                  lcd_write_reg_data PROC
;;;54     //LCD_RegValue:要写入的数据
;;;55     void lcd_write_reg_data(u16 LCD_Reg,u16 LCD_RegValue)
000000  4a02              LDR      r2,|L30.12|
;;;56     {	
;;;57     	LCD->lcd_reg = LCD_Reg;		//写入要写的寄存器序号	 
000002  8010              STRH     r0,[r2,#0]
;;;58     	LCD->lcd_ram = LCD_RegValue;//写入数据	    		 
000004  1c90              ADDS     r0,r2,#2
000006  8001              STRH     r1,[r0,#0]
;;;59     }	   
000008  4770              BX       lr
;;;60     //读寄存器
                          ENDP

00000a  0000              DCW      0x0000
                  |L30.12|
                          DCD      0x6007fffe

                          AREA ||i.opt_delay||, CODE, READONLY, ALIGN=1

                  opt_delay PROC
                  |L31.0|
;;;94     //延时i
;;;95     void opt_delay(u8 i)
000000  1e40              SUBS     r0,r0,#1
;;;96     {
;;;97     	while(i--);
000002  b2c0              UXTB     r0,r0
000004  d2fc              BCS      |L31.0|
;;;98     }
000006  4770              BX       lr
;;;99     //读取个某点的颜色值	 
                          ENDP


                          AREA ||i.lcd_nt35510_init||, CODE, READONLY, ALIGN=1

                  lcd_nt35510_init PROC
;;;2040   // 供rt-thread系统调用的NT35510 tft lcd屏初始化函数
;;;2041   void lcd_nt35510_init(void)
000000  f7ffbffe          B.W      lcd_init
;;;2042   {
;;;2043   	lcd_init();
;;;2044   }
;;;2045   
                          ENDP


                          AREA ||.bss||, DATA, NOINIT, ALIGN=1

                  lcd_dev
                          %        14

                          AREA ||.constdata||, DATA, READONLY, ALIGN=0

                  asc2_1206
000000  00000000          DCB      0x00,0x00,0x00,0x00
000004  00000000          DCB      0x00,0x00,0x00,0x00
000008  00000000          DCB      0x00,0x00,0x00,0x00
00000c  00000000          DCB      0x00,0x00,0x00,0x00
000010  3f400000          DCB      0x3f,0x40,0x00,0x00
000014  00000000          DCB      0x00,0x00,0x00,0x00
000018  00003000          DCB      0x00,0x00,0x30,0x00
00001c  40003000          DCB      0x40,0x00,0x30,0x00
000020  40000000          DCB      0x40,0x00,0x00,0x00
000024  09000bc0          DCB      0x09,0x00,0x0b,0xc0
000028  3d000bc0          DCB      0x3d,0x00,0x0b,0xc0
00002c  3d000900          DCB      0x3d,0x00,0x09,0x00
000030  18c02440          DCB      0x18,0xc0,0x24,0x40
000034  7fe02240          DCB      0x7f,0xe0,0x22,0x40
000038  31800000          DCB      0x31,0x80,0x00,0x00
00003c  180024c0          DCB      0x18,0x00,0x24,0xc0
000040  1b000d80          DCB      0x1b,0x00,0x0d,0x80
000044  32400180          DCB      0x32,0x40,0x01,0x80
000048  03801c40          DCB      0x03,0x80,0x1c,0x40
00004c  27401c80          DCB      0x27,0x40,0x1c,0x80
000050  07400040          DCB      0x07,0x40,0x00,0x40
000054  10006000          DCB      0x10,0x00,0x60,0x00
000058  00000000          DCB      0x00,0x00,0x00,0x00
00005c  00000000          DCB      0x00,0x00,0x00,0x00
000060  00000000          DCB      0x00,0x00,0x00,0x00
000064  00001f80          DCB      0x00,0x00,0x1f,0x80
000068  20404020          DCB      0x20,0x40,0x40,0x20
00006c  00004020          DCB      0x00,0x00,0x40,0x20
000070  20401f80          DCB      0x20,0x40,0x1f,0x80
000074  00000000          DCB      0x00,0x00,0x00,0x00
000078  09000600          DCB      0x09,0x00,0x06,0x00
00007c  1f800600          DCB      0x1f,0x80,0x06,0x00
000080  09000000          DCB      0x09,0x00,0x00,0x00
000084  04000400          DCB      0x04,0x00,0x04,0x00
000088  3f800400          DCB      0x3f,0x80,0x04,0x00
00008c  04000000          DCB      0x04,0x00,0x00,0x00
000090  00100060          DCB      0x00,0x10,0x00,0x60
000094  00000000          DCB      0x00,0x00,0x00,0x00
000098  00000000          DCB      0x00,0x00,0x00,0x00
00009c  04000400          DCB      0x04,0x00,0x04,0x00
0000a0  04000400          DCB      0x04,0x00,0x04,0x00
0000a4  04000000          DCB      0x04,0x00,0x00,0x00
0000a8  00000040          DCB      0x00,0x00,0x00,0x40
0000ac  00000000          DCB      0x00,0x00,0x00,0x00
0000b0  00000000          DCB      0x00,0x00,0x00,0x00
0000b4  002001c0          DCB      0x00,0x20,0x01,0xc0
0000b8  06003800          DCB      0x06,0x00,0x38,0x00
0000bc  40000000          DCB      0x40,0x00,0x00,0x00
0000c0  1f802040          DCB      0x1f,0x80,0x20,0x40
0000c4  20402040          DCB      0x20,0x40,0x20,0x40
0000c8  1f800000          DCB      0x1f,0x80,0x00,0x00
0000cc  00001040          DCB      0x00,0x00,0x10,0x40
0000d0  3fc00040          DCB      0x3f,0xc0,0x00,0x40
0000d4  00000000          DCB      0x00,0x00,0x00,0x00
0000d8  18c02140          DCB      0x18,0xc0,0x21,0x40
0000dc  22402440          DCB      0x22,0x40,0x24,0x40
0000e0  18400000          DCB      0x18,0x40,0x00,0x00
0000e4  10802040          DCB      0x10,0x80,0x20,0x40
0000e8  24402440          DCB      0x24,0x40,0x24,0x40
0000ec  1b800000          DCB      0x1b,0x80,0x00,0x00
0000f0  02000d00          DCB      0x02,0x00,0x0d,0x00
0000f4  11003fc0          DCB      0x11,0x00,0x3f,0xc0
0000f8  01400000          DCB      0x01,0x40,0x00,0x00
0000fc  3c802440          DCB      0x3c,0x80,0x24,0x40
000100  24402440          DCB      0x24,0x40,0x24,0x40
000104  23800000          DCB      0x23,0x80,0x00,0x00
000108  1f802440          DCB      0x1f,0x80,0x24,0x40
00010c  24403440          DCB      0x24,0x40,0x34,0x40
000110  03800000          DCB      0x03,0x80,0x00,0x00
000114  30002000          DCB      0x30,0x00,0x20,0x00
000118  27c03800          DCB      0x27,0xc0,0x38,0x00
00011c  20000000          DCB      0x20,0x00,0x00,0x00
000120  1b802440          DCB      0x1b,0x80,0x24,0x40
000124  24402440          DCB      0x24,0x40,0x24,0x40
000128  1b800000          DCB      0x1b,0x80,0x00,0x00
00012c  1c0022c0          DCB      0x1c,0x00,0x22,0xc0
000130  22402240          DCB      0x22,0x40,0x22,0x40
000134  1f800000          DCB      0x1f,0x80,0x00,0x00
000138  00000000          DCB      0x00,0x00,0x00,0x00
00013c  08400000          DCB      0x08,0x40,0x00,0x00
000140  00000000          DCB      0x00,0x00,0x00,0x00
000144  00000000          DCB      0x00,0x00,0x00,0x00
000148  04600000          DCB      0x04,0x60,0x00,0x00
00014c  00000000          DCB      0x00,0x00,0x00,0x00
000150  00000400          DCB      0x00,0x00,0x04,0x00
000154  0a001100          DCB      0x0a,0x00,0x11,0x00
000158  20804040          DCB      0x20,0x80,0x40,0x40
00015c  09000900          DCB      0x09,0x00,0x09,0x00
000160  09000900          DCB      0x09,0x00,0x09,0x00
000164  09000000          DCB      0x09,0x00,0x00,0x00
000168  00004040          DCB      0x00,0x00,0x40,0x40
00016c  20801100          DCB      0x20,0x80,0x11,0x00
000170  0a000400          DCB      0x0a,0x00,0x04,0x00
000174  18002000          DCB      0x18,0x00,0x20,0x00
000178  23402400          DCB      0x23,0x40,0x24,0x00
00017c  18000000          DCB      0x18,0x00,0x00,0x00
000180  1f802040          DCB      0x1f,0x80,0x20,0x40
000184  27402940          DCB      0x27,0x40,0x29,0x40
000188  1f400000          DCB      0x1f,0x40,0x00,0x00
00018c  004007c0          DCB      0x00,0x40,0x07,0xc0
000190  39000f00          DCB      0x39,0x00,0x0f,0x00
000194  01c00040          DCB      0x01,0xc0,0x00,0x40
000198  20403fc0          DCB      0x20,0x40,0x3f,0xc0
00019c  24402440          DCB      0x24,0x40,0x24,0x40
0001a0  1b800000          DCB      0x1b,0x80,0x00,0x00
0001a4  1f802040          DCB      0x1f,0x80,0x20,0x40
0001a8  20402040          DCB      0x20,0x40,0x20,0x40
0001ac  30800000          DCB      0x30,0x80,0x00,0x00
0001b0  20403fc0          DCB      0x20,0x40,0x3f,0xc0
0001b4  20402040          DCB      0x20,0x40,0x20,0x40
0001b8  1f800000          DCB      0x1f,0x80,0x00,0x00
0001bc  20403fc0          DCB      0x20,0x40,0x3f,0xc0
0001c0  24402e40          DCB      0x24,0x40,0x2e,0x40
0001c4  30c00000          DCB      0x30,0xc0,0x00,0x00
0001c8  20403fc0          DCB      0x20,0x40,0x3f,0xc0
0001cc  24402e00          DCB      0x24,0x40,0x2e,0x00
0001d0  30000000          DCB      0x30,0x00,0x00,0x00
0001d4  0f001080          DCB      0x0f,0x00,0x10,0x80
0001d8  20402240          DCB      0x20,0x40,0x22,0x40
0001dc  33800200          DCB      0x33,0x80,0x02,0x00
0001e0  20403fc0          DCB      0x20,0x40,0x3f,0xc0
0001e4  04000400          DCB      0x04,0x00,0x04,0x00
0001e8  3fc02040          DCB      0x3f,0xc0,0x20,0x40
0001ec  20402040          DCB      0x20,0x40,0x20,0x40
0001f0  3fc02040          DCB      0x3f,0xc0,0x20,0x40
0001f4  20400000          DCB      0x20,0x40,0x00,0x00
0001f8  00602020          DCB      0x00,0x60,0x20,0x20
0001fc  20203fc0          DCB      0x20,0x20,0x3f,0xc0
000200  20002000          DCB      0x20,0x00,0x20,0x00
000204  20403fc0          DCB      0x20,0x40,0x3f,0xc0
000208  24400b00          DCB      0x24,0x40,0x0b,0x00
00020c  30c02040          DCB      0x30,0xc0,0x20,0x40
000210  20403fc0          DCB      0x20,0x40,0x3f,0xc0
000214  20400040          DCB      0x20,0x40,0x00,0x40
000218  004000c0          DCB      0x00,0x40,0x00,0xc0
00021c  3fc03c00          DCB      0x3f,0xc0,0x3c,0x00
000220  03c03c00          DCB      0x03,0xc0,0x3c,0x00
000224  3fc00000          DCB      0x3f,0xc0,0x00,0x00
000228  20403fc0          DCB      0x20,0x40,0x3f,0xc0
00022c  0c402300          DCB      0x0c,0x40,0x23,0x00
000230  3fc02000          DCB      0x3f,0xc0,0x20,0x00
000234  1f802040          DCB      0x1f,0x80,0x20,0x40
000238  20402040          DCB      0x20,0x40,0x20,0x40
00023c  1f800000          DCB      0x1f,0x80,0x00,0x00
000240  20403fc0          DCB      0x20,0x40,0x3f,0xc0
000244  24402400          DCB      0x24,0x40,0x24,0x00
000248  18000000          DCB      0x18,0x00,0x00,0x00
00024c  1f802140          DCB      0x1f,0x80,0x21,0x40
000250  214020e0          DCB      0x21,0x40,0x20,0xe0
000254  1fa00000          DCB      0x1f,0xa0,0x00,0x00
000258  20403fc0          DCB      0x20,0x40,0x3f,0xc0
00025c  24402600          DCB      0x24,0x40,0x26,0x00
000260  19c00040          DCB      0x19,0xc0,0x00,0x40
000264  18c02440          DCB      0x18,0xc0,0x24,0x40
000268  24402240          DCB      0x24,0x40,0x22,0x40
00026c  31800000          DCB      0x31,0x80,0x00,0x00
000270  30002040          DCB      0x30,0x00,0x20,0x40
000274  3fc02040          DCB      0x3f,0xc0,0x20,0x40
000278  30000000          DCB      0x30,0x00,0x00,0x00
00027c  20003f80          DCB      0x20,0x00,0x3f,0x80
000280  00400040          DCB      0x00,0x40,0x00,0x40
000284  3f802000          DCB      0x3f,0x80,0x20,0x00
000288  20003e00          DCB      0x20,0x00,0x3e,0x00
00028c  01c00700          DCB      0x01,0xc0,0x07,0x00
000290  38002000          DCB      0x38,0x00,0x20,0x00
000294  380007c0          DCB      0x38,0x00,0x07,0xc0
000298  3c0007c0          DCB      0x3c,0x00,0x07,0xc0
00029c  38000000          DCB      0x38,0x00,0x00,0x00
0002a0  204039c0          DCB      0x20,0x40,0x39,0xc0
0002a4  060039c0          DCB      0x06,0x00,0x39,0xc0
0002a8  20400000          DCB      0x20,0x40,0x00,0x00
0002ac  20003840          DCB      0x20,0x00,0x38,0x40
0002b0  07c03840          DCB      0x07,0xc0,0x38,0x40
0002b4  20000000          DCB      0x20,0x00,0x00,0x00
0002b8  304021c0          DCB      0x30,0x40,0x21,0xc0
0002bc  26403840          DCB      0x26,0x40,0x38,0x40
0002c0  20c00000          DCB      0x20,0xc0,0x00,0x00
0002c4  00000000          DCB      0x00,0x00,0x00,0x00
0002c8  7fe04020          DCB      0x7f,0xe0,0x40,0x20
0002cc  40200000          DCB      0x40,0x20,0x00,0x00
0002d0  00007000          DCB      0x00,0x00,0x70,0x00
0002d4  0c000380          DCB      0x0c,0x00,0x03,0x80
0002d8  00400000          DCB      0x00,0x40,0x00,0x00
0002dc  00004020          DCB      0x00,0x00,0x40,0x20
0002e0  40207fe0          DCB      0x40,0x20,0x7f,0xe0
0002e4  00000000          DCB      0x00,0x00,0x00,0x00
0002e8  00002000          DCB      0x00,0x00,0x20,0x00
0002ec  40002000          DCB      0x40,0x00,0x20,0x00
0002f0  00000000          DCB      0x00,0x00,0x00,0x00
0002f4  00100010          DCB      0x00,0x10,0x00,0x10
0002f8  00100010          DCB      0x00,0x10,0x00,0x10
0002fc  00100010          DCB      0x00,0x10,0x00,0x10
000300  00000000          DCB      0x00,0x00,0x00,0x00
000304  40000000          DCB      0x40,0x00,0x00,0x00
000308  00000000          DCB      0x00,0x00,0x00,0x00
00030c  00000280          DCB      0x00,0x00,0x02,0x80
000310  05400540          DCB      0x05,0x40,0x05,0x40
000314  03c00040          DCB      0x03,0xc0,0x00,0x40
000318  20003fc0          DCB      0x20,0x00,0x3f,0xc0
00031c  04400440          DCB      0x04,0x40,0x04,0x40
000320  03800000          DCB      0x03,0x80,0x00,0x00
000324  00000380          DCB      0x00,0x00,0x03,0x80
000328  04400440          DCB      0x04,0x40,0x04,0x40
00032c  06400000          DCB      0x06,0x40,0x00,0x00
000330  00000380          DCB      0x00,0x00,0x03,0x80
000334  04402440          DCB      0x04,0x40,0x24,0x40
000338  3fc00040          DCB      0x3f,0xc0,0x00,0x40
00033c  00000380          DCB      0x00,0x00,0x03,0x80
000340  05400540          DCB      0x05,0x40,0x05,0x40
000344  03400000          DCB      0x03,0x40,0x00,0x00
000348  00000440          DCB      0x00,0x00,0x04,0x40
00034c  1fc02440          DCB      0x1f,0xc0,0x24,0x40
000350  24402000          DCB      0x24,0x40,0x20,0x00
000354  000002e0          DCB      0x00,0x00,0x02,0xe0
000358  05500550          DCB      0x05,0x50,0x05,0x50
00035c  06500420          DCB      0x06,0x50,0x04,0x20
000360  20403fc0          DCB      0x20,0x40,0x3f,0xc0
000364  04400400          DCB      0x04,0x40,0x04,0x00
000368  03c00040          DCB      0x03,0xc0,0x00,0x40
00036c  00000440          DCB      0x00,0x00,0x04,0x40
000370  27c00040          DCB      0x27,0xc0,0x00,0x40
000374  00000000          DCB      0x00,0x00,0x00,0x00
000378  00100010          DCB      0x00,0x10,0x00,0x10
00037c  041027e0          DCB      0x04,0x10,0x27,0xe0
000380  00000000          DCB      0x00,0x00,0x00,0x00
000384  20403fc0          DCB      0x20,0x40,0x3f,0xc0
000388  01400700          DCB      0x01,0x40,0x07,0x00
00038c  04c00440          DCB      0x04,0xc0,0x04,0x40
000390  20402040          DCB      0x20,0x40,0x20,0x40
000394  3fc00040          DCB      0x3f,0xc0,0x00,0x40
000398  00400000          DCB      0x00,0x40,0x00,0x00
00039c  07c00400          DCB      0x07,0xc0,0x04,0x00
0003a0  07c00400          DCB      0x07,0xc0,0x04,0x00
0003a4  03c00000          DCB      0x03,0xc0,0x00,0x00
0003a8  044007c0          DCB      0x04,0x40,0x07,0xc0
0003ac  04400400          DCB      0x04,0x40,0x04,0x00
0003b0  03c00040          DCB      0x03,0xc0,0x00,0x40
0003b4  00000380          DCB      0x00,0x00,0x03,0x80
0003b8  04400440          DCB      0x04,0x40,0x04,0x40
0003bc  03800000          DCB      0x03,0x80,0x00,0x00
0003c0  041007f0          DCB      0x04,0x10,0x07,0xf0
0003c4  04500440          DCB      0x04,0x50,0x04,0x40
0003c8  03800000          DCB      0x03,0x80,0x00,0x00
0003cc  00000380          DCB      0x00,0x00,0x03,0x80
0003d0  04400450          DCB      0x04,0x40,0x04,0x50
0003d4  07f00010          DCB      0x07,0xf0,0x00,0x10
0003d8  044007c0          DCB      0x04,0x40,0x07,0xc0
0003dc  02400400          DCB      0x02,0x40,0x04,0x00
0003e0  04000000          DCB      0x04,0x00,0x00,0x00
0003e4  00000640          DCB      0x00,0x00,0x06,0x40
0003e8  05400540          DCB      0x05,0x40,0x05,0x40
0003ec  04c00000          DCB      0x04,0xc0,0x00,0x00
0003f0  00000400          DCB      0x00,0x00,0x04,0x00
0003f4  1f800440          DCB      0x1f,0x80,0x04,0x40
0003f8  00400000          DCB      0x00,0x40,0x00,0x00
0003fc  04000780          DCB      0x04,0x00,0x07,0x80
000400  00400440          DCB      0x00,0x40,0x04,0x40
000404  07c00040          DCB      0x07,0xc0,0x00,0x40
000408  04000700          DCB      0x04,0x00,0x07,0x00
00040c  04c00180          DCB      0x04,0xc0,0x01,0x80
000410  06000400          DCB      0x06,0x00,0x04,0x00
000414  060001c0          DCB      0x06,0x00,0x01,0xc0
000418  070001c0          DCB      0x07,0x00,0x01,0xc0
00041c  06000000          DCB      0x06,0x00,0x00,0x00
000420  044006c0          DCB      0x04,0x40,0x06,0xc0
000424  010006c0          DCB      0x01,0x00,0x06,0xc0
000428  04400000          DCB      0x04,0x40,0x00,0x00
00042c  04100710          DCB      0x04,0x10,0x07,0x10
000430  04e00180          DCB      0x04,0xe0,0x01,0x80
000434  06000400          DCB      0x06,0x00,0x04,0x00
000438  00000440          DCB      0x00,0x00,0x04,0x40
00043c  05c00640          DCB      0x05,0xc0,0x06,0x40
000440  04400000          DCB      0x04,0x40,0x00,0x00
000444  00000000          DCB      0x00,0x00,0x00,0x00
000448  04007be0          DCB      0x04,0x00,0x7b,0xe0
00044c  40200000          DCB      0x40,0x20,0x00,0x00
000450  00000000          DCB      0x00,0x00,0x00,0x00
000454  0000fff0          DCB      0x00,0x00,0xff,0xf0
000458  00000000          DCB      0x00,0x00,0x00,0x00
00045c  00004020          DCB      0x00,0x00,0x40,0x20
000460  7be00400          DCB      0x7b,0xe0,0x04,0x00
000464  00000000          DCB      0x00,0x00,0x00,0x00
000468  40008000          DCB      0x40,0x00,0x80,0x00
00046c  40002000          DCB      0x40,0x00,0x20,0x00
000470  20004000          DCB      0x20,0x00,0x40,0x00
                  asc2_1608
000474  00000000          DCB      0x00,0x00,0x00,0x00
000478  00000000          DCB      0x00,0x00,0x00,0x00
00047c  00000000          DCB      0x00,0x00,0x00,0x00
000480  00000000          DCB      0x00,0x00,0x00,0x00
000484  00000000          DCB      0x00,0x00,0x00,0x00
000488  00001fcc          DCB      0x00,0x00,0x1f,0xcc
00048c  000c0000          DCB      0x00,0x0c,0x00,0x00
000490  00000000          DCB      0x00,0x00,0x00,0x00
000494  00000800          DCB      0x00,0x00,0x08,0x00
000498  30006000          DCB      0x30,0x00,0x60,0x00
00049c  08003000          DCB      0x08,0x00,0x30,0x00
0004a0  60000000          DCB      0x60,0x00,0x00,0x00
0004a4  022003fc          DCB      0x02,0x20,0x03,0xfc
0004a8  1e200220          DCB      0x1e,0x20,0x02,0x20
0004ac  03fc1e20          DCB      0x03,0xfc,0x1e,0x20
0004b0  02200000          DCB      0x02,0x20,0x00,0x00
0004b4  00000e18          DCB      0x00,0x00,0x0e,0x18
0004b8  11043fff          DCB      0x11,0x04,0x3f,0xff
0004bc  10840c78          DCB      0x10,0x84,0x0c,0x78
0004c0  00000000          DCB      0x00,0x00,0x00,0x00
0004c4  0f001084          DCB      0x0f,0x00,0x10,0x84
0004c8  0f3800c0          DCB      0x0f,0x38,0x00,0xc0
0004cc  07781884          DCB      0x07,0x78,0x18,0x84
0004d0  00780000          DCB      0x00,0x78,0x00,0x00
0004d4  00780f84          DCB      0x00,0x78,0x0f,0x84
0004d8  10c41124          DCB      0x10,0xc4,0x11,0x24
0004dc  0e9800e4          DCB      0x0e,0x98,0x00,0xe4
0004e0  00840008          DCB      0x00,0x84,0x00,0x08
0004e4  08006800          DCB      0x08,0x00,0x68,0x00
0004e8  70000000          DCB      0x70,0x00,0x00,0x00
0004ec  00000000          DCB      0x00,0x00,0x00,0x00
0004f0  00000000          DCB      0x00,0x00,0x00,0x00
0004f4  00000000          DCB      0x00,0x00,0x00,0x00
0004f8  000007e0          DCB      0x00,0x00,0x07,0xe0
0004fc  18182004          DCB      0x18,0x18,0x20,0x04
000500  40020000          DCB      0x40,0x02,0x00,0x00
000504  00004002          DCB      0x00,0x00,0x40,0x02
000508  20041818          DCB      0x20,0x04,0x18,0x18
00050c  07e00000          DCB      0x07,0xe0,0x00,0x00
000510  00000000          DCB      0x00,0x00,0x00,0x00
000514  02400240          DCB      0x02,0x40,0x02,0x40
000518  01800ff0          DCB      0x01,0x80,0x0f,0xf0
00051c  01800240          DCB      0x01,0x80,0x02,0x40
000520  02400000          DCB      0x02,0x40,0x00,0x00
000524  00800080          DCB      0x00,0x80,0x00,0x80
000528  00800ff8          DCB      0x00,0x80,0x0f,0xf8
00052c  00800080          DCB      0x00,0x80,0x00,0x80
000530  00800000          DCB      0x00,0x80,0x00,0x00
000534  0001000d          DCB      0x00,0x01,0x00,0x0d
000538  000e0000          DCB      0x00,0x0e,0x00,0x00
00053c  00000000          DCB      0x00,0x00,0x00,0x00
000540  00000000          DCB      0x00,0x00,0x00,0x00
000544  00000080          DCB      0x00,0x00,0x00,0x80
000548  00800080          DCB      0x00,0x80,0x00,0x80
00054c  00800080          DCB      0x00,0x80,0x00,0x80
000550  00800080          DCB      0x00,0x80,0x00,0x80
000554  0000000c          DCB      0x00,0x00,0x00,0x0c
000558  000c0000          DCB      0x00,0x0c,0x00,0x00
00055c  00000000          DCB      0x00,0x00,0x00,0x00
000560  00000000          DCB      0x00,0x00,0x00,0x00
000564  00000006          DCB      0x00,0x00,0x00,0x06
000568  00180060          DCB      0x00,0x18,0x00,0x60
00056c  01800600          DCB      0x01,0x80,0x06,0x00
000570  18002000          DCB      0x18,0x00,0x20,0x00
000574  000007f0          DCB      0x00,0x00,0x07,0xf0
000578  08081004          DCB      0x08,0x08,0x10,0x04
00057c  10040808          DCB      0x10,0x04,0x08,0x08
000580  07f00000          DCB      0x07,0xf0,0x00,0x00
000584  00000804          DCB      0x00,0x00,0x08,0x04
000588  08041ffc          DCB      0x08,0x04,0x1f,0xfc
00058c  00040004          DCB      0x00,0x04,0x00,0x04
000590  00000000          DCB      0x00,0x00,0x00,0x00
000594  00000e0c          DCB      0x00,0x00,0x0e,0x0c
000598  10141024          DCB      0x10,0x14,0x10,0x24
00059c  10441184          DCB      0x10,0x44,0x11,0x84
0005a0  0e0c0000          DCB      0x0e,0x0c,0x00,0x00
0005a4  00000c18          DCB      0x00,0x00,0x0c,0x18
0005a8  10041104          DCB      0x10,0x04,0x11,0x04
0005ac  11041288          DCB      0x11,0x04,0x12,0x88
0005b0  0c700000          DCB      0x0c,0x70,0x00,0x00
0005b4  000000e0          DCB      0x00,0x00,0x00,0xe0
0005b8  03200424          DCB      0x03,0x20,0x04,0x24
0005bc  08241ffc          DCB      0x08,0x24,0x1f,0xfc
0005c0  00240000          DCB      0x00,0x24,0x00,0x00
0005c4  00001f98          DCB      0x00,0x00,0x1f,0x98
0005c8  10841104          DCB      0x10,0x84,0x11,0x04
0005cc  11041088          DCB      0x11,0x04,0x10,0x88
0005d0  10700000          DCB      0x10,0x70,0x00,0x00
0005d4  000007f0          DCB      0x00,0x00,0x07,0xf0
0005d8  08881104          DCB      0x08,0x88,0x11,0x04
0005dc  11041888          DCB      0x11,0x04,0x18,0x88
0005e0  00700000          DCB      0x00,0x70,0x00,0x00
0005e4  00001c00          DCB      0x00,0x00,0x1c,0x00
0005e8  100010fc          DCB      0x10,0x00,0x10,0xfc
0005ec  13001c00          DCB      0x13,0x00,0x1c,0x00
0005f0  10000000          DCB      0x10,0x00,0x00,0x00
0005f4  00000e38          DCB      0x00,0x00,0x0e,0x38
0005f8  11441084          DCB      0x11,0x44,0x10,0x84
0005fc  10841144          DCB      0x10,0x84,0x11,0x44
000600  0e380000          DCB      0x0e,0x38,0x00,0x00
000604  00000700          DCB      0x00,0x00,0x07,0x00
000608  088c1044          DCB      0x08,0x8c,0x10,0x44
00060c  10440888          DCB      0x10,0x44,0x08,0x88
000610  07f00000          DCB      0x07,0xf0,0x00,0x00
000614  00000000          DCB      0x00,0x00,0x00,0x00
000618  0000030c          DCB      0x00,0x00,0x03,0x0c
00061c  030c0000          DCB      0x03,0x0c,0x00,0x00
000620  00000000          DCB      0x00,0x00,0x00,0x00
000624  00000000          DCB      0x00,0x00,0x00,0x00
000628  00010106          DCB      0x00,0x01,0x01,0x06
00062c  00000000          DCB      0x00,0x00,0x00,0x00
000630  00000000          DCB      0x00,0x00,0x00,0x00
000634  00000080          DCB      0x00,0x00,0x00,0x80
000638  01400220          DCB      0x01,0x40,0x02,0x20
00063c  04100808          DCB      0x04,0x10,0x08,0x08
000640  10040000          DCB      0x10,0x04,0x00,0x00
000644  02200220          DCB      0x02,0x20,0x02,0x20
000648  02200220          DCB      0x02,0x20,0x02,0x20
00064c  02200220          DCB      0x02,0x20,0x02,0x20
000650  02200000          DCB      0x02,0x20,0x00,0x00
000654  00001004          DCB      0x00,0x00,0x10,0x04
000658  08080410          DCB      0x08,0x08,0x04,0x10
00065c  02200140          DCB      0x02,0x20,0x01,0x40
000660  00800000          DCB      0x00,0x80,0x00,0x00
000664  00000e00          DCB      0x00,0x00,0x0e,0x00
000668  1200100c          DCB      0x12,0x00,0x10,0x0c
00066c  106c1080          DCB      0x10,0x6c,0x10,0x80
000670  0f000000          DCB      0x0f,0x00,0x00,0x00
000674  03e00c18          DCB      0x03,0xe0,0x0c,0x18
000678  13e41424          DCB      0x13,0xe4,0x14,0x24
00067c  17c40828          DCB      0x17,0xc4,0x08,0x28
000680  07d00000          DCB      0x07,0xd0,0x00,0x00
000684  0004003c          DCB      0x00,0x04,0x00,0x3c
000688  03c41c40          DCB      0x03,0xc4,0x1c,0x40
00068c  074000e4          DCB      0x07,0x40,0x00,0xe4
000690  001c0004          DCB      0x00,0x1c,0x00,0x04
000694  10041ffc          DCB      0x10,0x04,0x1f,0xfc
000698  11041104          DCB      0x11,0x04,0x11,0x04
00069c  11040e88          DCB      0x11,0x04,0x0e,0x88
0006a0  00700000          DCB      0x00,0x70,0x00,0x00
0006a4  03e00c18          DCB      0x03,0xe0,0x0c,0x18
0006a8  10041004          DCB      0x10,0x04,0x10,0x04
0006ac  10041008          DCB      0x10,0x04,0x10,0x08
0006b0  1c100000          DCB      0x1c,0x10,0x00,0x00
0006b4  10041ffc          DCB      0x10,0x04,0x1f,0xfc
0006b8  10041004          DCB      0x10,0x04,0x10,0x04
0006bc  10040808          DCB      0x10,0x04,0x08,0x08
0006c0  07f00000          DCB      0x07,0xf0,0x00,0x00
0006c4  10041ffc          DCB      0x10,0x04,0x1f,0xfc
0006c8  11041104          DCB      0x11,0x04,0x11,0x04
0006cc  17c41004          DCB      0x17,0xc4,0x10,0x04
0006d0  08180000          DCB      0x08,0x18,0x00,0x00
0006d4  10041ffc          DCB      0x10,0x04,0x1f,0xfc
0006d8  11041100          DCB      0x11,0x04,0x11,0x00
0006dc  17c01000          DCB      0x17,0xc0,0x10,0x00
0006e0  08000000          DCB      0x08,0x00,0x00,0x00
0006e4  03e00c18          DCB      0x03,0xe0,0x0c,0x18
0006e8  10041004          DCB      0x10,0x04,0x10,0x04
0006ec  10441c78          DCB      0x10,0x44,0x1c,0x78
0006f0  00400000          DCB      0x00,0x40,0x00,0x00
0006f4  10041ffc          DCB      0x10,0x04,0x1f,0xfc
0006f8  10840080          DCB      0x10,0x84,0x00,0x80
0006fc  00801084          DCB      0x00,0x80,0x10,0x84
000700  1ffc1004          DCB      0x1f,0xfc,0x10,0x04
000704  00001004          DCB      0x00,0x00,0x10,0x04
000708  10041ffc          DCB      0x10,0x04,0x1f,0xfc
00070c  10041004          DCB      0x10,0x04,0x10,0x04
000710  00000000          DCB      0x00,0x00,0x00,0x00
000714  00030001          DCB      0x00,0x03,0x00,0x01
000718  10011001          DCB      0x10,0x01,0x10,0x01
00071c  1ffe1000          DCB      0x1f,0xfe,0x10,0x00
000720  10000000          DCB      0x10,0x00,0x00,0x00
000724  10041ffc          DCB      0x10,0x04,0x1f,0xfc
000728  11040380          DCB      0x11,0x04,0x03,0x80
00072c  1464181c          DCB      0x14,0x64,0x18,0x1c
000730  10040000          DCB      0x10,0x04,0x00,0x00
000734  10041ffc          DCB      0x10,0x04,0x1f,0xfc
000738  10040004          DCB      0x10,0x04,0x00,0x04
00073c  00040004          DCB      0x00,0x04,0x00,0x04
000740  000c0000          DCB      0x00,0x0c,0x00,0x00
000744  10041ffc          DCB      0x10,0x04,0x1f,0xfc
000748  1f0000fc          DCB      0x1f,0x00,0x00,0xfc
00074c  1f001ffc          DCB      0x1f,0x00,0x1f,0xfc
000750  10040000          DCB      0x10,0x04,0x00,0x00
000754  10041ffc          DCB      0x10,0x04,0x1f,0xfc
000758  0c040300          DCB      0x0c,0x04,0x03,0x00
00075c  00e01018          DCB      0x00,0xe0,0x10,0x18
000760  1ffc1000          DCB      0x1f,0xfc,0x10,0x00
000764  07f00808          DCB      0x07,0xf0,0x08,0x08
000768  10041004          DCB      0x10,0x04,0x10,0x04
00076c  10040808          DCB      0x10,0x04,0x08,0x08
000770  07f00000          DCB      0x07,0xf0,0x00,0x00
000774  10041ffc          DCB      0x10,0x04,0x1f,0xfc
000778  10841080          DCB      0x10,0x84,0x10,0x80
00077c  10801080          DCB      0x10,0x80,0x10,0x80
000780  0f000000          DCB      0x0f,0x00,0x00,0x00
000784  07f00818          DCB      0x07,0xf0,0x08,0x18
000788  10241024          DCB      0x10,0x24,0x10,0x24
00078c  101c080a          DCB      0x10,0x1c,0x08,0x0a
000790  07f20000          DCB      0x07,0xf2,0x00,0x00
000794  10041ffc          DCB      0x10,0x04,0x1f,0xfc
000798  11041100          DCB      0x11,0x04,0x11,0x00
00079c  11c01130          DCB      0x11,0xc0,0x11,0x30
0007a0  0e0c0004          DCB      0x0e,0x0c,0x00,0x04
0007a4  00000e1c          DCB      0x00,0x00,0x0e,0x1c
0007a8  11041084          DCB      0x11,0x04,0x10,0x84
0007ac  10841044          DCB      0x10,0x84,0x10,0x44
0007b0  1c380000          DCB      0x1c,0x38,0x00,0x00
0007b4  18001000          DCB      0x18,0x00,0x10,0x00
0007b8  10041ffc          DCB      0x10,0x04,0x1f,0xfc
0007bc  10041000          DCB      0x10,0x04,0x10,0x00
0007c0  18000000          DCB      0x18,0x00,0x00,0x00
0007c4  10001ff8          DCB      0x10,0x00,0x1f,0xf8
0007c8  10040004          DCB      0x10,0x04,0x00,0x04
0007cc  00041004          DCB      0x00,0x04,0x10,0x04
0007d0  1ff81000          DCB      0x1f,0xf8,0x10,0x00
0007d4  10001e00          DCB      0x10,0x00,0x1e,0x00
0007d8  11e0001c          DCB      0x11,0xe0,0x00,0x1c
0007dc  00701380          DCB      0x00,0x70,0x13,0x80
0007e0  1c001000          DCB      0x1c,0x00,0x10,0x00
0007e4  1fc0103c          DCB      0x1f,0xc0,0x10,0x3c
0007e8  00e01f00          DCB      0x00,0xe0,0x1f,0x00
0007ec  00e0103c          DCB      0x00,0xe0,0x10,0x3c
0007f0  1fc00000          DCB      0x1f,0xc0,0x00,0x00
0007f4  1004180c          DCB      0x10,0x04,0x18,0x0c
0007f8  163401c0          DCB      0x16,0x34,0x01,0xc0
0007fc  01c01634          DCB      0x01,0xc0,0x16,0x34
000800  180c1004          DCB      0x18,0x0c,0x10,0x04
000804  10001c00          DCB      0x10,0x00,0x1c,0x00
000808  130400fc          DCB      0x13,0x04,0x00,0xfc
00080c  13041c00          DCB      0x13,0x04,0x1c,0x00
000810  10000000          DCB      0x10,0x00,0x00,0x00
000814  0804101c          DCB      0x08,0x04,0x10,0x1c
000818  10641084          DCB      0x10,0x64,0x10,0x84
00081c  13041c04          DCB      0x13,0x04,0x1c,0x04
000820  10180000          DCB      0x10,0x18,0x00,0x00
000824  00000000          DCB      0x00,0x00,0x00,0x00
000828  00007ffe          DCB      0x00,0x00,0x7f,0xfe
00082c  40024002          DCB      0x40,0x02,0x40,0x02
000830  40020000          DCB      0x40,0x02,0x00,0x00
000834  00003000          DCB      0x00,0x00,0x30,0x00
000838  0c000380          DCB      0x0c,0x00,0x03,0x80
00083c  0060001c          DCB      0x00,0x60,0x00,0x1c
000840  00030000          DCB      0x00,0x03,0x00,0x00
000844  00004002          DCB      0x00,0x00,0x40,0x02
000848  40024002          DCB      0x40,0x02,0x40,0x02
00084c  7ffe0000          DCB      0x7f,0xfe,0x00,0x00
000850  00000000          DCB      0x00,0x00,0x00,0x00
000854  00000000          DCB      0x00,0x00,0x00,0x00
000858  20004000          DCB      0x20,0x00,0x40,0x00
00085c  40004000          DCB      0x40,0x00,0x40,0x00
000860  20000000          DCB      0x20,0x00,0x00,0x00
000864  00010001          DCB      0x00,0x01,0x00,0x01
000868  00010001          DCB      0x00,0x01,0x00,0x01
00086c  00010001          DCB      0x00,0x01,0x00,0x01
000870  00010001          DCB      0x00,0x01,0x00,0x01
000874  00004000          DCB      0x00,0x00,0x40,0x00
000878  40002000          DCB      0x40,0x00,0x20,0x00
00087c  00000000          DCB      0x00,0x00,0x00,0x00
000880  00000000          DCB      0x00,0x00,0x00,0x00
000884  00000098          DCB      0x00,0x00,0x00,0x98
000888  01240144          DCB      0x01,0x24,0x01,0x44
00088c  01440144          DCB      0x01,0x44,0x01,0x44
000890  00fc0004          DCB      0x00,0xfc,0x00,0x04
000894  10001ffc          DCB      0x10,0x00,0x1f,0xfc
000898  00880104          DCB      0x00,0x88,0x01,0x04
00089c  01040088          DCB      0x01,0x04,0x00,0x88
0008a0  00700000          DCB      0x00,0x70,0x00,0x00
0008a4  00000070          DCB      0x00,0x00,0x00,0x70
0008a8  00880104          DCB      0x00,0x88,0x01,0x04
0008ac  01040104          DCB      0x01,0x04,0x01,0x04
0008b0  00880000          DCB      0x00,0x88,0x00,0x00
0008b4  00000070          DCB      0x00,0x00,0x00,0x70
0008b8  00880104          DCB      0x00,0x88,0x01,0x04
0008bc  01041108          DCB      0x01,0x04,0x11,0x08
0008c0  1ffc0004          DCB      0x1f,0xfc,0x00,0x04
0008c4  000000f8          DCB      0x00,0x00,0x00,0xf8
0008c8  01440144          DCB      0x01,0x44,0x01,0x44
0008cc  01440144          DCB      0x01,0x44,0x01,0x44
0008d0  00c80000          DCB      0x00,0xc8,0x00,0x00
0008d4  00000104          DCB      0x00,0x00,0x01,0x04
0008d8  01040ffc          DCB      0x01,0x04,0x0f,0xfc
0008dc  11041104          DCB      0x11,0x04,0x11,0x04
0008e0  11001800          DCB      0x11,0x00,0x18,0x00
0008e4  000000d6          DCB      0x00,0x00,0x00,0xd6
0008e8  01290129          DCB      0x01,0x29,0x01,0x29
0008ec  012901c9          DCB      0x01,0x29,0x01,0xc9
0008f0  01060000          DCB      0x01,0x06,0x00,0x00
0008f4  10041ffc          DCB      0x10,0x04,0x1f,0xfc
0008f8  00840100          DCB      0x00,0x84,0x01,0x00
0008fc  01000104          DCB      0x01,0x00,0x01,0x04
000900  00fc0004          DCB      0x00,0xfc,0x00,0x04
000904  00000104          DCB      0x00,0x00,0x01,0x04
000908  190419fc          DCB      0x19,0x04,0x19,0xfc
00090c  00040004          DCB      0x00,0x04,0x00,0x04
000910  00000000          DCB      0x00,0x00,0x00,0x00
000914  00000003          DCB      0x00,0x00,0x00,0x03
000918  00010101          DCB      0x00,0x01,0x01,0x01
00091c  190119fe          DCB      0x19,0x01,0x19,0xfe
000920  00000000          DCB      0x00,0x00,0x00,0x00
000924  10041ffc          DCB      0x10,0x04,0x1f,0xfc
000928  00240040          DCB      0x00,0x24,0x00,0x40
00092c  01b4010c          DCB      0x01,0xb4,0x01,0x0c
000930  01040000          DCB      0x01,0x04,0x00,0x00
000934  00001004          DCB      0x00,0x00,0x10,0x04
000938  10041ffc          DCB      0x10,0x04,0x1f,0xfc
00093c  00040004          DCB      0x00,0x04,0x00,0x04
000940  00000000          DCB      0x00,0x00,0x00,0x00
000944  010401fc          DCB      0x01,0x04,0x01,0xfc
000948  01040100          DCB      0x01,0x04,0x01,0x00
00094c  01fc0104          DCB      0x01,0xfc,0x01,0x04
000950  010000fc          DCB      0x01,0x00,0x00,0xfc
000954  010401fc          DCB      0x01,0x04,0x01,0xfc
000958  00840100          DCB      0x00,0x84,0x01,0x00
00095c  01000104          DCB      0x01,0x00,0x01,0x04
000960  00fc0004          DCB      0x00,0xfc,0x00,0x04
000964  000000f8          DCB      0x00,0x00,0x00,0xf8
000968  01040104          DCB      0x01,0x04,0x01,0x04
00096c  01040104          DCB      0x01,0x04,0x01,0x04
000970  00f80000          DCB      0x00,0xf8,0x00,0x00
000974  010101ff          DCB      0x01,0x01,0x01,0xff
000978  00850104          DCB      0x00,0x85,0x01,0x04
00097c  01040088          DCB      0x01,0x04,0x00,0x88
000980  00700000          DCB      0x00,0x70,0x00,0x00
000984  00000070          DCB      0x00,0x00,0x00,0x70
000988  00880104          DCB      0x00,0x88,0x01,0x04
00098c  01040105          DCB      0x01,0x04,0x01,0x05
000990  01ff0001          DCB      0x01,0xff,0x00,0x01
000994  01040104          DCB      0x01,0x04,0x01,0x04
000998  01fc0084          DCB      0x01,0xfc,0x00,0x84
00099c  01040100          DCB      0x01,0x04,0x01,0x00
0009a0  01800000          DCB      0x01,0x80,0x00,0x00
0009a4  000000cc          DCB      0x00,0x00,0x00,0xcc
0009a8  01240124          DCB      0x01,0x24,0x01,0x24
0009ac  01240124          DCB      0x01,0x24,0x01,0x24
0009b0  01980000          DCB      0x01,0x98,0x00,0x00
0009b4  00000100          DCB      0x00,0x00,0x01,0x00
0009b8  010007f8          DCB      0x01,0x00,0x07,0xf8
0009bc  01040104          DCB      0x01,0x04,0x01,0x04
0009c0  00000000          DCB      0x00,0x00,0x00,0x00
0009c4  010001f8          DCB      0x01,0x00,0x01,0xf8
0009c8  00040004          DCB      0x00,0x04,0x00,0x04
0009cc  00040108          DCB      0x00,0x04,0x01,0x08
0009d0  01fc0004          DCB      0x01,0xfc,0x00,0x04
0009d4  01000180          DCB      0x01,0x00,0x01,0x80
0009d8  0170000c          DCB      0x01,0x70,0x00,0x0c
0009dc  00100160          DCB      0x00,0x10,0x01,0x60
0009e0  01800100          DCB      0x01,0x80,0x01,0x00
0009e4  01f0010c          DCB      0x01,0xf0,0x01,0x0c
0009e8  003001c0          DCB      0x00,0x30,0x01,0xc0
0009ec  0030010c          DCB      0x00,0x30,0x01,0x0c
0009f0  01f00100          DCB      0x01,0xf0,0x01,0x00
0009f4  00000104          DCB      0x00,0x00,0x01,0x04
0009f8  018c0074          DCB      0x01,0x8c,0x00,0x74
0009fc  0170018c          DCB      0x01,0x70,0x01,0x8c
000a00  01040000          DCB      0x01,0x04,0x00,0x00
000a04  01010181          DCB      0x01,0x01,0x01,0x81
000a08  0171000e          DCB      0x01,0x71,0x00,0x0e
000a0c  00180160          DCB      0x00,0x18,0x01,0x60
000a10  01800100          DCB      0x01,0x80,0x01,0x00
000a14  00000184          DCB      0x00,0x00,0x01,0x84
000a18  010c0134          DCB      0x01,0x0c,0x01,0x34
000a1c  01440184          DCB      0x01,0x44,0x01,0x84
000a20  010c0000          DCB      0x01,0x0c,0x00,0x00
000a24  00000000          DCB      0x00,0x00,0x00,0x00
000a28  00000000          DCB      0x00,0x00,0x00,0x00
000a2c  01003efc          DCB      0x01,0x00,0x3e,0xfc
000a30  40024002          DCB      0x40,0x02,0x40,0x02
000a34  00000000          DCB      0x00,0x00,0x00,0x00
000a38  00000000          DCB      0x00,0x00,0x00,0x00
000a3c  ffff0000          DCB      0xff,0xff,0x00,0x00
000a40  00000000          DCB      0x00,0x00,0x00,0x00
000a44  00004002          DCB      0x00,0x00,0x40,0x02
000a48  40023efc          DCB      0x40,0x02,0x3e,0xfc
000a4c  01000000          DCB      0x01,0x00,0x00,0x00
000a50  00000000          DCB      0x00,0x00,0x00,0x00
000a54  00006000          DCB      0x00,0x00,0x60,0x00
000a58  80008000          DCB      0x80,0x00,0x80,0x00
000a5c  40004000          DCB      0x40,0x00,0x40,0x00
000a60  20002000          DCB      0x20,0x00,0x20,0x00
                  asc2_2412
000a64  00000000          DCB      0x00,0x00,0x00,0x00
000a68  00000000          DCB      0x00,0x00,0x00,0x00
000a6c  00000000          DCB      0x00,0x00,0x00,0x00
000a70  00000000          DCB      0x00,0x00,0x00,0x00
000a74  00000000          DCB      0x00,0x00,0x00,0x00
000a78  00000000          DCB      0x00,0x00,0x00,0x00
000a7c  00000000          DCB      0x00,0x00,0x00,0x00
000a80  00000000          DCB      0x00,0x00,0x00,0x00
000a84  00000000          DCB      0x00,0x00,0x00,0x00
000a88  00000000          DCB      0x00,0x00,0x00,0x00
000a8c  00000000          DCB      0x00,0x00,0x00,0x00
000a90  00000000          DCB      0x00,0x00,0x00,0x00
000a94  0000000f          DCB      0x00,0x00,0x00,0x0f
000a98  80380ffe          DCB      0x80,0x38,0x0f,0xfe
000a9c  380f8038          DCB      0x38,0x0f,0x80,0x38
000aa0  00000000          DCB      0x00,0x00,0x00,0x00
000aa4  00000000          DCB      0x00,0x00,0x00,0x00
000aa8  00000000          DCB      0x00,0x00,0x00,0x00
000aac  00000000          DCB      0x00,0x00,0x00,0x00
000ab0  00000100          DCB      0x00,0x00,0x01,0x00
000ab4  00060000          DCB      0x00,0x06,0x00,0x00
000ab8  0c000038          DCB      0x0c,0x00,0x00,0x38
000abc  00003100          DCB      0x00,0x00,0x31,0x00
000ac0  00060000          DCB      0x00,0x06,0x00,0x00
000ac4  0c000038          DCB      0x0c,0x00,0x00,0x38
000ac8  00003000          DCB      0x00,0x00,0x30,0x00
000acc  00000000          DCB      0x00,0x00,0x00,0x00
000ad0  00000000          DCB      0x00,0x00,0x00,0x00
000ad4  61800067          DCB      0x61,0x80,0x00,0x67
000ad8  f807f980          DCB      0xf8,0x07,0xf9,0x80
000adc  00618000          DCB      0x00,0x61,0x80,0x00
000ae0  61800061          DCB      0x61,0x80,0x00,0x61
000ae4  80006180          DCB      0x80,0x00,0x61,0x80
000ae8  0067f807          DCB      0x00,0x67,0xf8,0x07
000aec  f9800061          DCB      0xf9,0x80,0x00,0x61
000af0  80000000          DCB      0x80,0x00,0x00,0x00
000af4  00000000          DCB      0x00,0x00,0x00,0x00
000af8  000001c0          DCB      0x00,0x00,0x01,0xc0
000afc  e003e0f0          DCB      0xe0,0x03,0xe0,0xf0
000b00  06300804          DCB      0x06,0x30,0x08,0x04
000b04  18081fff          DCB      0x18,0x08,0x1f,0xff
000b08  fe040e08          DCB      0xfe,0x04,0x0e,0x08
000b0c  0787f003          DCB      0x07,0x87,0xf0,0x03
000b10  81e00000          DCB      0x81,0xe0,0x00,0x00
000b14  00000000          DCB      0x00,0x00,0x00,0x00
000b18  01f00006          DCB      0x01,0xf0,0x00,0x06
000b1c  0c000404          DCB      0x0c,0x00,0x04,0x04
000b20  08060c70          DCB      0x08,0x06,0x0c,0x70
000b24  01f9c000          DCB      0x01,0xf9,0xc0,0x00
000b28  0e00003b          DCB      0x0e,0x00,0x00,0x3b
000b2c  e000ec18          DCB      0xe0,0x00,0xec,0x18
000b30  07080804          DCB      0x07,0x08,0x08,0x04
000b34  0c180003          DCB      0x0c,0x18,0x00,0x03
000b38  e0000000          DCB      0xe0,0x00,0x00,0x00
000b3c  0001e000          DCB      0x00,0x01,0xe0,0x00
000b40  07f003f8          DCB      0x07,0xf0,0x03,0xf8
000b44  18041c08          DCB      0x18,0x04,0x1c,0x08
000b48  04170807          DCB      0x04,0x17,0x08,0x07
000b4c  e1d003c0          DCB      0xe1,0xd0,0x03,0xc0
000b50  e00023b0          DCB      0xe0,0x00,0x23,0xb0
000b54  003c0800          DCB      0x00,0x3c,0x08,0x00
000b58  20080000          DCB      0x20,0x08,0x00,0x00
000b5c  10000000          DCB      0x10,0x00,0x00,0x00
000b60  00000001          DCB      0x00,0x00,0x00,0x01
000b64  00003100          DCB      0x00,0x00,0x31,0x00
000b68  00320000          DCB      0x00,0x32,0x00,0x00
000b6c  1c000000          DCB      0x1c,0x00,0x00,0x00
000b70  00000000          DCB      0x00,0x00,0x00,0x00
000b74  00000000          DCB      0x00,0x00,0x00,0x00
000b78  00000000          DCB      0x00,0x00,0x00,0x00
000b7c  00000000          DCB      0x00,0x00,0x00,0x00
000b80  00000000          DCB      0x00,0x00,0x00,0x00
000b84  00000000          DCB      0x00,0x00,0x00,0x00
000b88  00000000          DCB      0x00,0x00,0x00,0x00
000b8c  00000000          DCB      0x00,0x00,0x00,0x00
000b90  00000000          DCB      0x00,0x00,0x00,0x00
000b94  7f0001ff          DCB      0x7f,0x00,0x01,0xff
000b98  c00780f0          DCB      0xc0,0x07,0x80,0xf0
000b9c  0c001810          DCB      0x0c,0x00,0x18,0x10
000ba0  00042000          DCB      0x00,0x04,0x20,0x00
000ba4  02000000          DCB      0x02,0x00,0x00,0x00
000ba8  00000020          DCB      0x00,0x00,0x00,0x20
000bac  00021000          DCB      0x00,0x02,0x10,0x00
000bb0  040c0018          DCB      0x04,0x0c,0x00,0x18
000bb4  0780f001          DCB      0x07,0x80,0xf0,0x01
000bb8  ffc0007f          DCB      0xff,0xc0,0x00,0x7f
000bbc  00000000          DCB      0x00,0x00,0x00,0x00
000bc0  00000000          DCB      0x00,0x00,0x00,0x00
000bc4  00000000          DCB      0x00,0x00,0x00,0x00
000bc8  00000000          DCB      0x00,0x00,0x00,0x00
000bcc  00000000          DCB      0x00,0x00,0x00,0x00
000bd0  42000066          DCB      0x42,0x00,0x00,0x66
000bd4  00006600          DCB      0x00,0x00,0x66,0x00
000bd8  003c0000          DCB      0x00,0x3c,0x00,0x00
000bdc  180003ff          DCB      0x18,0x00,0x03,0xff
000be0  c0001800          DCB      0xc0,0x00,0x18,0x00
000be4  003c0000          DCB      0x00,0x3c,0x00,0x00
000be8  66000066          DCB      0x66,0x00,0x00,0x66
000bec  00004200          DCB      0x00,0x00,0x42,0x00
000bf0  00000000          DCB      0x00,0x00,0x00,0x00
000bf4  08000008          DCB      0x08,0x00,0x00,0x08
000bf8  00000800          DCB      0x00,0x00,0x08,0x00
000bfc  00080000          DCB      0x00,0x08,0x00,0x00
000c00  080001ff          DCB      0x08,0x00,0x01,0xff
000c04  c0000800          DCB      0xc0,0x00,0x08,0x00
000c08  00080000          DCB      0x00,0x08,0x00,0x00
000c0c  08000008          DCB      0x08,0x00,0x00,0x08
000c10  00000800          DCB      0x00,0x00,0x08,0x00
000c14  00000000          DCB      0x00,0x00,0x00,0x00
000c18  00010000          DCB      0x00,0x01,0x00,0x00
000c1c  31000032          DCB      0x31,0x00,0x00,0x32
000c20  00001c00          DCB      0x00,0x00,0x1c,0x00
000c24  00000000          DCB      0x00,0x00,0x00,0x00
000c28  00000000          DCB      0x00,0x00,0x00,0x00
000c2c  00000000          DCB      0x00,0x00,0x00,0x00
000c30  00000000          DCB      0x00,0x00,0x00,0x00
000c34  00000000          DCB      0x00,0x00,0x00,0x00
000c38  00000000          DCB      0x00,0x00,0x00,0x00
000c3c  08000008          DCB      0x08,0x00,0x00,0x08
000c40  00000800          DCB      0x00,0x00,0x08,0x00
000c44  00080000          DCB      0x00,0x08,0x00,0x00
000c48  08000008          DCB      0x08,0x00,0x00,0x08
000c4c  00000800          DCB      0x00,0x00,0x08,0x00
000c50  00080000          DCB      0x00,0x08,0x00,0x00
000c54  08000008          DCB      0x08,0x00,0x00,0x08
000c58  00000000          DCB      0x00,0x00,0x00,0x00
000c5c  00000000          DCB      0x00,0x00,0x00,0x00
000c60  00000000          DCB      0x00,0x00,0x00,0x00
000c64  38000038          DCB      0x38,0x00,0x00,0x38
000c68  00003800          DCB      0x00,0x00,0x38,0x00
000c6c  00000000          DCB      0x00,0x00,0x00,0x00
000c70  00000000          DCB      0x00,0x00,0x00,0x00
000c74  00000000          DCB      0x00,0x00,0x00,0x00
000c78  00000000          DCB      0x00,0x00,0x00,0x00
000c7c  00000000          DCB      0x00,0x00,0x00,0x00
000c80  00000000          DCB      0x00,0x00,0x00,0x00
000c84  00060000          DCB      0x00,0x06,0x00,0x00
000c88  1c000070          DCB      0x1c,0x00,0x00,0x70
000c8c  00018000          DCB      0x00,0x01,0x80,0x00
000c90  0e000038          DCB      0x0e,0x00,0x00,0x38
000c94  0000c000          DCB      0x00,0x00,0xc0,0x00
000c98  0700001c          DCB      0x07,0x00,0x00,0x1c
000c9c  00003000          DCB      0x00,0x00,0x30,0x00
000ca0  00000000          DCB      0x00,0x00,0x00,0x00
000ca4  00000000          DCB      0x00,0x00,0x00,0x00
000ca8  7f8001ff          DCB      0x7f,0x80,0x01,0xff
000cac  e0038070          DCB      0xe0,0x03,0x80,0x70
000cb0  06001804          DCB      0x06,0x00,0x18,0x04
000cb4  00080400          DCB      0x00,0x08,0x04,0x00
000cb8  08060018          DCB      0x08,0x06,0x00,0x18
000cbc  03807001          DCB      0x03,0x80,0x70,0x01
000cc0  ffe0007f          DCB      0xff,0xe0,0x00,0x7f
000cc4  80000000          DCB      0x80,0x00,0x00,0x00
000cc8  00000000          DCB      0x00,0x00,0x00,0x00
000ccc  00000100          DCB      0x00,0x00,0x01,0x00
000cd0  08010008          DCB      0x08,0x01,0x00,0x08
000cd4  01000803          DCB      0x01,0x00,0x08,0x03
000cd8  fff807ff          DCB      0xff,0xf8,0x07,0xff
000cdc  f8000008          DCB      0xf8,0x00,0x00,0x08
000ce0  00000800          DCB      0x00,0x00,0x08,0x00
000ce4  00080000          DCB      0x00,0x08,0x00,0x00
000ce8  00000000          DCB      0x00,0x00,0x00,0x00
000cec  00000001          DCB      0x00,0x00,0x00,0x01
000cf0  c03802c0          DCB      0xc0,0x38,0x02,0xc0
000cf4  58040098          DCB      0x58,0x04,0x00,0x98
000cf8  04011804          DCB      0x04,0x01,0x18,0x04
000cfc  02180404          DCB      0x02,0x18,0x04,0x04
000d00  18061c18          DCB      0x18,0x06,0x1c,0x18
000d04  03f81801          DCB      0x03,0xf8,0x18,0x01
000d08  e0f80000          DCB      0xe0,0xf8,0x00,0x00
000d0c  00000000          DCB      0x00,0x00,0x00,0x00
000d10  00000001          DCB      0x00,0x00,0x00,0x01
000d14  c0e003c0          DCB      0xc0,0xe0,0x03,0xc0
000d18  f0040008          DCB      0xf0,0x04,0x00,0x08
000d1c  04080804          DCB      0x04,0x08,0x08,0x04
000d20  08080618          DCB      0x08,0x08,0x06,0x18
000d24  0803f418          DCB      0x08,0x03,0xf4,0x18
000d28  01e7f000          DCB      0x01,0xe7,0xf0,0x00
000d2c  01e00000          DCB      0x01,0xe0,0x00,0x00
000d30  00000000          DCB      0x00,0x00,0x00,0x00
000d34  00000000          DCB      0x00,0x00,0x00,0x00
000d38  0300000d          DCB      0x03,0x00,0x00,0x0d
000d3c  00001100          DCB      0x00,0x00,0x11,0x00
000d40  00610000          DCB      0x00,0x61,0x00,0x00
000d44  81080301          DCB      0x81,0x08,0x03,0x01
000d48  0807fff8          DCB      0x08,0x07,0xff,0xf8
000d4c  0ffff800          DCB      0x0f,0xff,0xf8,0x00
000d50  01080001          DCB      0x01,0x08,0x00,0x01
000d54  08000000          DCB      0x08,0x00,0x00,0x00
000d58  00000000          DCB      0x00,0x00,0x00,0x00
000d5c  00e007fc          DCB      0x00,0xe0,0x07,0xfc
000d60  d0060808          DCB      0xd0,0x06,0x08,0x08
000d64  06100806          DCB      0x06,0x10,0x08,0x06
000d68  10080610          DCB      0x10,0x08,0x06,0x10
000d6c  08061838          DCB      0x08,0x06,0x18,0x38
000d70  060ff006          DCB      0x06,0x0f,0xf0,0x06
000d74  07c00000          DCB      0x07,0xc0,0x00,0x00
000d78  00000000          DCB      0x00,0x00,0x00,0x00
000d7c  00000000          DCB      0x00,0x00,0x00,0x00
000d80  3f8001ff          DCB      0x3f,0x80,0x01,0xff
000d84  e0038430          DCB      0xe0,0x03,0x84,0x30
000d88  02081804          DCB      0x02,0x08,0x18,0x04
000d8c  10080410          DCB      0x10,0x08,0x04,0x10
000d90  08041008          DCB      0x08,0x04,0x10,0x08
000d94  07181003          DCB      0x07,0x18,0x10,0x03
000d98  0ff00007          DCB      0x0f,0xf0,0x00,0x07
000d9c  c0000000          DCB      0xc0,0x00,0x00,0x00
000da0  00000000          DCB      0x00,0x00,0x00,0x00
000da4  000003c0          DCB      0x00,0x00,0x03,0xc0
000da8  00070000          DCB      0x00,0x07,0x00,0x00
000dac  06000006          DCB      0x06,0x00,0x00,0x06
000db0  00f80607          DCB      0x00,0xf8,0x06,0x07
000db4  f8061800          DCB      0xf8,0x06,0x18,0x00
000db8  06e00007          DCB      0x06,0xe0,0x00,0x07
000dbc  00000600          DCB      0x00,0x00,0x06,0x00
000dc0  00000000          DCB      0x00,0x00,0x00,0x00
000dc4  00000001          DCB      0x00,0x00,0x00,0x01
000dc8  e1e003f7          DCB      0xe1,0xe0,0x03,0xf7
000dcc  f0063410          DCB      0xf0,0x06,0x34,0x10
000dd0  04180804          DCB      0x04,0x18,0x08,0x04
000dd4  1808040c          DCB      0x18,0x08,0x04,0x0c
000dd8  08040c08          DCB      0x08,0x04,0x0c,0x08
000ddc  06161803          DCB      0x06,0x16,0x18,0x03
000de0  f3f001c1          DCB      0xf3,0xf0,0x01,0xc1
000de4  e0000000          DCB      0xe0,0x00,0x00,0x00
000de8  00000000          DCB      0x00,0x00,0x00,0x00
000dec  f80003fc          DCB      0xf8,0x00,0x03,0xfc
000df0  30030638          DCB      0x30,0x03,0x06,0x38
000df4  04020804          DCB      0x04,0x02,0x08,0x04
000df8  02080402          DCB      0x02,0x08,0x04,0x02
000dfc  08040410          DCB      0x08,0x04,0x04,0x10
000e00  0308f001          DCB      0x03,0x08,0xf0,0x01
000e04  ffc0007f          DCB      0xff,0xc0,0x00,0x7f
000e08  00000000          DCB      0x00,0x00,0x00,0x00
000e0c  00000000          DCB      0x00,0x00,0x00,0x00
000e10  00000000          DCB      0x00,0x00,0x00,0x00
000e14  00000000          DCB      0x00,0x00,0x00,0x00
000e18  00000000          DCB      0x00,0x00,0x00,0x00
000e1c  70380070          DCB      0x70,0x38,0x00,0x70
000e20  38007038          DCB      0x38,0x00,0x70,0x38
000e24  00000000          DCB      0x00,0x00,0x00,0x00
000e28  00000000          DCB      0x00,0x00,0x00,0x00
000e2c  00000000          DCB      0x00,0x00,0x00,0x00
000e30  00000000          DCB      0x00,0x00,0x00,0x00
000e34  00000000          DCB      0x00,0x00,0x00,0x00
000e38  00000000          DCB      0x00,0x00,0x00,0x00
000e3c  00000000          DCB      0x00,0x00,0x00,0x00
000e40  301a0030          DCB      0x30,0x1a,0x00,0x30
000e44  1c000000          DCB      0x1c,0x00,0x00,0x00
000e48  00000000          DCB      0x00,0x00,0x00,0x00
000e4c  00000000          DCB      0x00,0x00,0x00,0x00
000e50  00000000          DCB      0x00,0x00,0x00,0x00
000e54  00000000          DCB      0x00,0x00,0x00,0x00
000e58  00000008          DCB      0x00,0x00,0x00,0x08
000e5c  00001400          DCB      0x00,0x00,0x14,0x00
000e60  00220000          DCB      0x00,0x22,0x00,0x00
000e64  41000080          DCB      0x41,0x00,0x00,0x80
000e68  80010040          DCB      0x80,0x01,0x00,0x40
000e6c  02002004          DCB      0x02,0x00,0x20,0x04
000e70  00100800          DCB      0x00,0x10,0x08,0x00
000e74  08000000          DCB      0x08,0x00,0x00,0x00
000e78  00000000          DCB      0x00,0x00,0x00,0x00
000e7c  21000021          DCB      0x21,0x00,0x00,0x21
000e80  00002100          DCB      0x00,0x00,0x21,0x00
000e84  00210000          DCB      0x00,0x21,0x00,0x00
000e88  21000021          DCB      0x21,0x00,0x00,0x21
000e8c  00002100          DCB      0x00,0x00,0x21,0x00
000e90  00210000          DCB      0x00,0x21,0x00,0x00
000e94  21000021          DCB      0x21,0x00,0x00,0x21
000e98  00000000          DCB      0x00,0x00,0x00,0x00
000e9c  00000000          DCB      0x00,0x00,0x00,0x00
000ea0  00000800          DCB      0x00,0x00,0x08,0x00
000ea4  08040010          DCB      0x08,0x04,0x00,0x10
000ea8  02002001          DCB      0x02,0x00,0x20,0x01
000eac  00400080          DCB      0x00,0x40,0x00,0x80
000eb0  80004100          DCB      0x80,0x00,0x41,0x00
000eb4  00220000          DCB      0x00,0x22,0x00,0x00
000eb8  14000008          DCB      0x14,0x00,0x00,0x08
000ebc  00000000          DCB      0x00,0x00,0x00,0x00
000ec0  00000003          DCB      0x00,0x00,0x00,0x03
000ec4  c00004c0          DCB      0xc0,0x00,0x04,0xc0
000ec8  00040000          DCB      0x00,0x04,0x00,0x00
000ecc  08003808          DCB      0x08,0x00,0x38,0x08
000ed0  0f380808          DCB      0x0f,0x38,0x08,0x08
000ed4  38081000          DCB      0x38,0x08,0x10,0x00
000ed8  0c300007          DCB      0x0c,0x30,0x00,0x07
000edc  e00003c0          DCB      0xe0,0x00,0x03,0xc0
000ee0  00000000          DCB      0x00,0x00,0x00,0x00
000ee4  00000000          DCB      0x00,0x00,0x00,0x00
000ee8  3f8000ff          DCB      0x3f,0x80,0x00,0xff
000eec  e0038070          DCB      0xe0,0x03,0x80,0x70
000ef0  020f1006          DCB      0x02,0x0f,0x10,0x06
000ef4  708804c0          DCB      0x70,0x88,0x04,0xc0
000ef8  88048308          DCB      0x88,0x04,0x83,0x08
000efc  047f8802          DCB      0x04,0x7f,0x88,0x02
000f00  c0900301          DCB      0xc0,0x90,0x03,0x01
000f04  2000fe40          DCB      0x20,0x00,0xfe,0x40
000f08  00000800          DCB      0x00,0x00,0x08,0x00
000f0c  00180001          DCB      0x00,0x18,0x00,0x01
000f10  f8003e08          DCB      0xf8,0x00,0x3e,0x08
000f14  01c20007          DCB      0x01,0xc2,0x00,0x07
000f18  020007e2          DCB      0x02,0x00,0x07,0xe2
000f1c  0000fe00          DCB      0x00,0x00,0xfe,0x00
000f20  001fc800          DCB      0x00,0x1f,0xc8,0x00
000f24  01f80000          DCB      0x01,0xf8,0x00,0x00
000f28  38000008          DCB      0x38,0x00,0x00,0x08
000f2c  04000807          DCB      0x04,0x00,0x08,0x07
000f30  fff807ff          DCB      0xff,0xf8,0x07,0xff
000f34  f8040808          DCB      0xf8,0x04,0x08,0x08
000f38  04080804          DCB      0x04,0x08,0x08,0x04
000f3c  08080408          DCB      0x08,0x08,0x04,0x08
000f40  08061808          DCB      0x08,0x06,0x18,0x08
000f44  03f41801          DCB      0x03,0xf4,0x18,0x01
000f48  e7f00001          DCB      0xe7,0xf0,0x00,0x01
000f4c  e0000000          DCB      0xe0,0x00,0x00,0x00
000f50  00000000          DCB      0x00,0x00,0x00,0x00
000f54  3f8001ff          DCB      0x3f,0x80,0x01,0xff
000f58  e0038070          DCB      0xe0,0x03,0x80,0x70
000f5c  02001804          DCB      0x02,0x00,0x18,0x04
000f60  00080400          DCB      0x00,0x08,0x04,0x00
000f64  08040008          DCB      0x08,0x04,0x00,0x08
000f68  04001006          DCB      0x04,0x00,0x10,0x06
000f6c  00200780          DCB      0x00,0x20,0x07,0x80
000f70  c0000000          DCB      0xc0,0x00,0x00,0x00
000f74  04000807          DCB      0x04,0x00,0x08,0x07
000f78  fff807ff          DCB      0xff,0xf8,0x07,0xff
000f7c  f8040008          DCB      0xf8,0x04,0x00,0x08
000f80  04000804          DCB      0x04,0x00,0x08,0x04
000f84  00080400          DCB      0x00,0x08,0x04,0x00
000f88  18020010          DCB      0x18,0x02,0x00,0x10
000f8c  03807001          DCB      0x03,0x80,0x70,0x01
000f90  ffe0007f          DCB      0xff,0xe0,0x00,0x7f
000f94  80000000          DCB      0x80,0x00,0x00,0x00
000f98  04000807          DCB      0x04,0x00,0x08,0x07
000f9c  fff807ff          DCB      0xff,0xf8,0x07,0xff
000fa0  f8040808          DCB      0xf8,0x04,0x08,0x08
000fa4  04080804          DCB      0x04,0x08,0x08,0x04
000fa8  08080408          DCB      0x08,0x08,0x04,0x08
000fac  08043e08          DCB      0x08,0x04,0x3e,0x08
000fb0  04000806          DCB      0x04,0x00,0x08,0x06
000fb4  00180100          DCB      0x00,0x18,0x01,0x00
000fb8  60000000          DCB      0x60,0x00,0x00,0x00
000fbc  04000807          DCB      0x04,0x00,0x08,0x07
000fc0  fff807ff          DCB      0xff,0xf8,0x07,0xff
000fc4  f8040808          DCB      0xf8,0x04,0x08,0x08
000fc8  04080004          DCB      0x04,0x08,0x00,0x04
000fcc  08000408          DCB      0x08,0x00,0x04,0x08
000fd0  00043e00          DCB      0x00,0x04,0x3e,0x00
000fd4  06000006          DCB      0x06,0x00,0x00,0x06
000fd8  00000180          DCB      0x00,0x00,0x01,0x80
000fdc  00000000          DCB      0x00,0x00,0x00,0x00
000fe0  00000000          DCB      0x00,0x00,0x00,0x00
000fe4  3f8001ff          DCB      0x3f,0x80,0x01,0xff
000fe8  e0038070          DCB      0xe0,0x03,0x80,0x70
000fec  06001804          DCB      0x06,0x00,0x18,0x04
000ff0  00080402          DCB      0x00,0x08,0x04,0x02
000ff4  08040208          DCB      0x08,0x04,0x02,0x08
000ff8  0203f007          DCB      0x02,0x03,0xf0,0x07
000ffc  83f00002          DCB      0x83,0xf0,0x00,0x02
001000  00000200          DCB      0x00,0x00,0x02,0x00
001004  04000807          DCB      0x04,0x00,0x08,0x07
001008  fff807ff          DCB      0xff,0xf8,0x07,0xff
00100c  f8040808          DCB      0xf8,0x04,0x08,0x08
001010  00080000          DCB      0x00,0x08,0x00,0x00
001014  08000008          DCB      0x08,0x00,0x00,0x08
001018  00000800          DCB      0x00,0x00,0x08,0x00
00101c  04080807          DCB      0x04,0x08,0x08,0x07
001020  fff807ff          DCB      0xff,0xf8,0x07,0xff
001024  f8040008          DCB      0xf8,0x04,0x00,0x08
001028  00000000          DCB      0x00,0x00,0x00,0x00
00102c  00000400          DCB      0x00,0x00,0x04,0x00
001030  08040008          DCB      0x08,0x04,0x00,0x08
001034  04000807          DCB      0x04,0x00,0x08,0x07
001038  fff807ff          DCB      0xff,0xf8,0x07,0xff
00103c  f8040008          DCB      0xf8,0x04,0x00,0x08
001040  04000804          DCB      0x04,0x00,0x08,0x04
001044  00080000          DCB      0x00,0x08,0x00,0x00
001048  00000000          DCB      0x00,0x00,0x00,0x00
00104c  00000000          DCB      0x00,0x00,0x00,0x00
001050  00060000          DCB      0x00,0x06,0x00,0x00
001054  07000001          DCB      0x07,0x00,0x00,0x01
001058  04000104          DCB      0x04,0x00,0x01,0x04
00105c  00010400          DCB      0x00,0x01,0x04,0x00
001060  0307fffe          DCB      0x03,0x07,0xff,0xfe
001064  07fffc04          DCB      0x07,0xff,0xfc,0x04
001068  00000400          DCB      0x00,0x00,0x04,0x00
00106c  00040000          DCB      0x00,0x04,0x00,0x00
001070  04000807          DCB      0x04,0x00,0x08,0x07
001074  fff807ff          DCB      0xff,0xf8,0x07,0xff
001078  f8040c08          DCB      0xf8,0x04,0x0c,0x08
00107c  00180000          DCB      0x00,0x18,0x00,0x00
001080  3e0004c7          DCB      0x3e,0x00,0x04,0xc7
001084  800503c8          DCB      0x80,0x05,0x03,0xc8
001088  0600f804          DCB      0x06,0x00,0xf8,0x04
00108c  00380400          DCB      0x00,0x38,0x04,0x00
001090  18000008          DCB      0x18,0x00,0x00,0x08
001094  04000807          DCB      0x04,0x00,0x08,0x07
001098  fff807ff          DCB      0xff,0xf8,0x07,0xff
00109c  f8040008          DCB      0xf8,0x04,0x00,0x08
0010a0  00000800          DCB      0x00,0x00,0x08,0x00
0010a4  00080000          DCB      0x00,0x08,0x00,0x00
0010a8  08000008          DCB      0x08,0x00,0x00,0x08
0010ac  00000800          DCB      0x00,0x00,0x08,0x00
0010b0  00180000          DCB      0x00,0x18,0x00,0x00
0010b4  60000000          DCB      0x60,0x00,0x00,0x00
0010b8  04000807          DCB      0x04,0x00,0x08,0x07
0010bc  fff80780          DCB      0xff,0xf8,0x07,0x80
0010c0  0807fc00          DCB      0x08,0x07,0xfc,0x00
0010c4  007fc000          DCB      0x00,0x7f,0xc0,0x00
0010c8  03f80007          DCB      0x03,0xf8,0x00,0x07
0010cc  c0007800          DCB      0xc0,0x00,0x78,0x00
0010d0  07800807          DCB      0x07,0x80,0x08,0x07
0010d4  fff807ff          DCB      0xff,0xf8,0x07,0xff
0010d8  f8040008          DCB      0xf8,0x04,0x00,0x08
0010dc  04000807          DCB      0x04,0x00,0x08,0x07
0010e0  fff80700          DCB      0xff,0xf8,0x07,0x00
0010e4  0803c000          DCB      0x08,0x03,0xc0,0x00
0010e8  00e00000          DCB      0x00,0xe0,0x00,0x00
0010ec  3800001e          DCB      0x38,0x00,0x00,0x1e
0010f0  00000700          DCB      0x00,0x00,0x07,0x00
0010f4  0001c004          DCB      0x00,0x01,0xc0,0x04
0010f8  00f007ff          DCB      0x00,0xf0,0x07,0xff
0010fc  f8040000          DCB      0xf8,0x04,0x00,0x00
001100  00000000          DCB      0x00,0x00,0x00,0x00
001104  7f8001ff          DCB      0x7f,0x80,0x01,0xff
001108  e0038070          DCB      0xe0,0x03,0x80,0x70
00110c  06001804          DCB      0x06,0x00,0x18,0x04
001110  00080400          DCB      0x00,0x08,0x04,0x00
001114  08060018          DCB      0x08,0x06,0x00,0x18
001118  03003001          DCB      0x03,0x00,0x30,0x01
00111c  ffe0007f          DCB      0xff,0xe0,0x00,0x7f
001120  80000000          DCB      0x80,0x00,0x00,0x00
001124  04000807          DCB      0x04,0x00,0x08,0x07
001128  fff807ff          DCB      0xff,0xf8,0x07,0xff
00112c  f8040408          DCB      0xf8,0x04,0x04,0x08
001130  04040004          DCB      0x04,0x04,0x00,0x04
001134  04000404          DCB      0x04,0x00,0x04,0x04
001138  00040400          DCB      0x00,0x04,0x04,0x00
00113c  060c0003          DCB      0x06,0x0c,0x00,0x03
001140  f80001f0          DCB      0xf8,0x00,0x01,0xf0
001144  00000000          DCB      0x00,0x00,0x00,0x00
001148  00000000          DCB      0x00,0x00,0x00,0x00
00114c  7f8001ff          DCB      0x7f,0x80,0x01,0xff
001150  e0038070          DCB      0xe0,0x03,0x80,0x70
001154  06008804          DCB      0x06,0x00,0x88,0x04
001158  00880400          DCB      0x00,0x88,0x04,0x00
00115c  c806003c          DCB      0xc8,0x06,0x00,0x3c
001160  03003e01          DCB      0x03,0x00,0x3e,0x01
001164  ffe6007f          DCB      0xff,0xe6,0x00,0x7f
001168  84000000          DCB      0x84,0x00,0x00,0x00
00116c  04000807          DCB      0x04,0x00,0x08,0x07
001170  fff807ff          DCB      0xff,0xf8,0x07,0xff
001174  f8040808          DCB      0xf8,0x04,0x08,0x08
001178  04080004          DCB      0x04,0x08,0x00,0x04
00117c  0c00040f          DCB      0x0c,0x00,0x04,0x0f
001180  00040bc0          DCB      0x00,0x04,0x0b,0xc0
001184  0610f003          DCB      0x06,0x10,0xf0,0x03
001188  f03801e0          DCB      0xf0,0x38,0x01,0xe0
00118c  08000008          DCB      0x08,0x00,0x00,0x08
001190  00000001          DCB      0x00,0x00,0x00,0x01
001194  e0f803f0          DCB      0xe0,0xf8,0x03,0xf0
001198  30063010          DCB      0x30,0x06,0x30,0x10
00119c  04180804          DCB      0x04,0x18,0x08,0x04
0011a0  1808040c          DCB      0x18,0x08,0x04,0x0c
0011a4  08040c08          DCB      0x08,0x04,0x0c,0x08
0011a8  02061802          DCB      0x02,0x06,0x18,0x02
0011ac  07f00781          DCB      0x07,0xf0,0x07,0x81
0011b0  e0000000          DCB      0xe0,0x00,0x00,0x00
0011b4  01800006          DCB      0x01,0x80,0x00,0x06
0011b8  00000400          DCB      0x00,0x00,0x04,0x00
0011bc  00040000          DCB      0x00,0x04,0x00,0x00
0011c0  04000807          DCB      0x04,0x00,0x08,0x07
0011c4  fff807ff          DCB      0xff,0xf8,0x07,0xff
0011c8  f8040008          DCB      0xf8,0x04,0x00,0x08
0011cc  04000004          DCB      0x04,0x00,0x00,0x04
0011d0  00000600          DCB      0x00,0x00,0x06,0x00
0011d4  00018000          DCB      0x00,0x01,0x80,0x00
0011d8  04000007          DCB      0x04,0x00,0x00,0x07
0011dc  ffe007ff          DCB      0xff,0xe0,0x07,0xff
0011e0  f0040018          DCB      0xf0,0x04,0x00,0x18
0011e4  00000800          DCB      0x00,0x00,0x08,0x00
0011e8  00080000          DCB      0x00,0x08,0x00,0x00
0011ec  08000008          DCB      0x08,0x00,0x00,0x08
0011f0  00000804          DCB      0x00,0x00,0x08,0x04
0011f4  001007ff          DCB      0x00,0x10,0x07,0xff
0011f8  e0040000          DCB      0xe0,0x04,0x00,0x00
0011fc  04000006          DCB      0x04,0x00,0x00,0x06
001200  000007e0          DCB      0x00,0x00,0x07,0xe0
001204  0007fe00          DCB      0x00,0x07,0xfe,0x00
001208  041fe000          DCB      0x04,0x1f,0xe0,0x00
00120c  01f80000          DCB      0x01,0xf8,0x00,0x00
001210  380001e0          DCB      0x38,0x00,0x01,0xe0
001214  043e0007          DCB      0x04,0x3e,0x00,0x07
001218  c0000600          DCB      0xc0,0x00,0x06,0x00
00121c  00040000          DCB      0x00,0x04,0x00,0x00
001220  04000007          DCB      0x04,0x00,0x00,0x07
001224  e00007ff          DCB      0xe0,0x00,0x07,0xff
001228  c0041ff8          DCB      0xc0,0x04,0x1f,0xf8
00122c  0007c007          DCB      0x00,0x07,0xc0,0x07
001230  f80007ff          DCB      0xf8,0x00,0x07,0xff
001234  80043ff8          DCB      0x80,0x04,0x3f,0xf8
001238  0007c004          DCB      0x00,0x07,0xc0,0x04
00123c  f8000700          DCB      0xf8,0x00,0x07,0x00
001240  00040000          DCB      0x00,0x04,0x00,0x00
001244  00000004          DCB      0x00,0x00,0x00,0x04
001248  00080600          DCB      0x00,0x08,0x06,0x00
00124c  1807c078          DCB      0x18,0x07,0xc0,0x78
001250  05f1c800          DCB      0x05,0xf1,0xc8,0x00
001254  3e00001f          DCB      0x3e,0x00,0x00,0x1f
001258  800463e8          DCB      0x80,0x04,0x63,0xe8
00125c  0780f806          DCB      0x07,0x80,0xf8,0x06
001260  00180400          DCB      0x00,0x18,0x04,0x00
001264  08000000          DCB      0x08,0x00,0x00,0x00
001268  04000006          DCB      0x04,0x00,0x00,0x06
00126c  00000780          DCB      0x00,0x00,0x07,0x80
001270  0007e008          DCB      0x00,0x07,0xe0,0x08
001274  047c0800          DCB      0x04,0x7c,0x08,0x00
001278  1ff80007          DCB      0x1f,0xf8,0x00,0x07
00127c  f8001808          DCB      0xf8,0x00,0x18,0x08
001280  04e00807          DCB      0x04,0xe0,0x08,0x07
001284  00000600          DCB      0x00,0x00,0x06,0x00
001288  00040000          DCB      0x00,0x04,0x00,0x00
00128c  00000001          DCB      0x00,0x00,0x00,0x01
001290  00080600          DCB      0x00,0x08,0x06,0x00
001294  380400f8          DCB      0x38,0x04,0x00,0xf8
001298  0403e804          DCB      0x04,0x03,0xe8,0x04
00129c  0f08047c          DCB      0x0f,0x08,0x04,0x7c
0012a0  0805f008          DCB      0x08,0x05,0xf0,0x08
0012a4  07c00807          DCB      0x07,0xc0,0x08,0x07
0012a8  00180400          DCB      0x00,0x18,0x04,0x00
0012ac  60000000          DCB      0x60,0x00,0x00,0x00
0012b0  00000000          DCB      0x00,0x00,0x00,0x00
0012b4  00000000          DCB      0x00,0x00,0x00,0x00
0012b8  00000000          DCB      0x00,0x00,0x00,0x00
0012bc  0000003f          DCB      0x00,0x00,0x00,0x3f
0012c0  fffe2000          DCB      0xff,0xfe,0x20,0x00
0012c4  02200002          DCB      0x02,0x20,0x00,0x02
0012c8  20000220          DCB      0x20,0x00,0x02,0x20
0012cc  00022000          DCB      0x00,0x02,0x20,0x00
0012d0  02000000          DCB      0x02,0x00,0x00,0x00
0012d4  00000000          DCB      0x00,0x00,0x00,0x00
0012d8  00000800          DCB      0x00,0x00,0x08,0x00
0012dc  00070000          DCB      0x00,0x07,0x00,0x00
0012e0  00c00000          DCB      0x00,0xc0,0x00,0x00
0012e4  38000006          DCB      0x38,0x00,0x00,0x06
0012e8  000001c0          DCB      0x00,0x00,0x01,0xc0
0012ec  00003000          DCB      0x00,0x00,0x30,0x00
0012f0  000e0000          DCB      0x00,0x0e,0x00,0x00
0012f4  01000000          DCB      0x01,0x00,0x00,0x00
0012f8  00000000          DCB      0x00,0x00,0x00,0x00
0012fc  00002000          DCB      0x00,0x00,0x20,0x00
001300  02200002          DCB      0x02,0x20,0x00,0x02
001304  20000220          DCB      0x20,0x00,0x02,0x20
001308  00022000          DCB      0x00,0x02,0x20,0x00
00130c  023ffffe          DCB      0x02,0x3f,0xff,0xfe
001310  00000000          DCB      0x00,0x00,0x00,0x00
001314  00000000          DCB      0x00,0x00,0x00,0x00
001318  00000000          DCB      0x00,0x00,0x00,0x00
00131c  00000000          DCB      0x00,0x00,0x00,0x00
001320  00000000          DCB      0x00,0x00,0x00,0x00
001324  00080000          DCB      0x00,0x08,0x00,0x00
001328  10000030          DCB      0x10,0x00,0x00,0x30
00132c  00002000          DCB      0x00,0x00,0x20,0x00
001330  00300000          DCB      0x00,0x30,0x00,0x00
001334  10000008          DCB      0x10,0x00,0x00,0x08
001338  00000000          DCB      0x00,0x00,0x00,0x00
00133c  00000000          DCB      0x00,0x00,0x00,0x00
001340  00000100          DCB      0x00,0x00,0x01,0x00
001344  00010000          DCB      0x00,0x01,0x00,0x00
001348  01000001          DCB      0x01,0x00,0x00,0x01
00134c  00000100          DCB      0x00,0x00,0x01,0x00
001350  00010000          DCB      0x00,0x01,0x00,0x00
001354  01000001          DCB      0x01,0x00,0x00,0x01
001358  00000100          DCB      0x00,0x00,0x01,0x00
00135c  00010000          DCB      0x00,0x01,0x00,0x00
001360  01000001          DCB      0x01,0x00,0x00,0x01
001364  00000000          DCB      0x00,0x00,0x00,0x00
001368  00000000          DCB      0x00,0x00,0x00,0x00
00136c  00200000          DCB      0x00,0x20,0x00,0x00
001370  20000010          DCB      0x20,0x00,0x00,0x10
001374  00001000          DCB      0x00,0x00,0x10,0x00
001378  00000000          DCB      0x00,0x00,0x00,0x00
00137c  00000000          DCB      0x00,0x00,0x00,0x00
001380  00000000          DCB      0x00,0x00,0x00,0x00
001384  00000000          DCB      0x00,0x00,0x00,0x00
001388  00000000          DCB      0x00,0x00,0x00,0x00
00138c  00f00019          DCB      0x00,0xf0,0x00,0x19
001390  f8001b18          DCB      0xf8,0x00,0x1b,0x18
001394  00220800          DCB      0x00,0x22,0x08,0x00
001398  26080024          DCB      0x26,0x08,0x00,0x24
00139c  08002410          DCB      0x08,0x00,0x24,0x10
0013a0  003ff800          DCB      0x00,0x3f,0xf8,0x00
0013a4  1ff80000          DCB      0x1f,0xf8,0x00,0x00
0013a8  08000018          DCB      0x08,0x00,0x00,0x18
0013ac  00000004          DCB      0x00,0x00,0x00,0x04
0013b0  000007ff          DCB      0x00,0x00,0x07,0xff
0013b4  f80ffff0          DCB      0xf8,0x0f,0xff,0xf0
0013b8  00181800          DCB      0x00,0x18,0x18,0x00
0013bc  10080020          DCB      0x10,0x08,0x00,0x20
0013c0  08002008          DCB      0x08,0x00,0x20,0x08
0013c4  00301800          DCB      0x00,0x30,0x18,0x00
0013c8  1ff0000f          DCB      0x1f,0xf0,0x00,0x0f
0013cc  c0000000          DCB      0xc0,0x00,0x00,0x00
0013d0  00000000          DCB      0x00,0x00,0x00,0x00
0013d4  07c0001f          DCB      0x07,0xc0,0x00,0x1f
0013d8  f0001830          DCB      0xf0,0x00,0x18,0x30
0013dc  00200800          DCB      0x00,0x20,0x08,0x00
0013e0  20080020          DCB      0x20,0x08,0x00,0x20
0013e4  08003c08          DCB      0x08,0x00,0x3c,0x08
0013e8  001c1000          DCB      0x00,0x1c,0x10,0x00
0013ec  00600000          DCB      0x00,0x60,0x00,0x00
0013f0  00000000          DCB      0x00,0x00,0x00,0x00
0013f4  00000000          DCB      0x00,0x00,0x00,0x00
0013f8  07c0001f          DCB      0x07,0xc0,0x00,0x1f
0013fc  f0003818          DCB      0xf0,0x00,0x38,0x18
001400  00200800          DCB      0x00,0x20,0x08,0x00
001404  20080020          DCB      0x20,0x08,0x00,0x20
001408  08041010          DCB      0x08,0x04,0x10,0x10
00140c  07fff80f          DCB      0x07,0xff,0xf8,0x0f
001410  fff00000          DCB      0xff,0xf0,0x00,0x00
001414  10000000          DCB      0x10,0x00,0x00,0x00
001418  00000000          DCB      0x00,0x00,0x00,0x00
00141c  00000007          DCB      0x00,0x00,0x00,0x07
001420  c0001ff0          DCB      0xc0,0x00,0x1f,0xf0
001424  00123000          DCB      0x00,0x12,0x30,0x00
001428  22180022          DCB      0x22,0x18,0x00,0x22
00142c  08002208          DCB      0x08,0x00,0x22,0x08
001430  00320800          DCB      0x00,0x32,0x08,0x00
001434  1e10000e          DCB      0x1e,0x10,0x00,0x0e
001438  20000000          DCB      0x20,0x00,0x00,0x00
00143c  00000000          DCB      0x00,0x00,0x00,0x00
001440  20000020          DCB      0x20,0x00,0x00,0x20
001444  08002008          DCB      0x08,0x00,0x20,0x08
001448  01fff803          DCB      0x01,0xff,0xf8,0x03
00144c  fff80620          DCB      0xff,0xf8,0x06,0x20
001450  08042008          DCB      0x08,0x04,0x20,0x08
001454  04200807          DCB      0x04,0x20,0x08,0x07
001458  20000300          DCB      0x20,0x00,0x03,0x00
00145c  00000000          DCB      0x00,0x00,0x00,0x00
001460  00000000          DCB      0x00,0x00,0x00,0x00
001464  000e000e          DCB      0x00,0x0e,0x00,0x0e
001468  6e001ff3          DCB      0x6e,0x00,0x1f,0xf3
00146c  0031b100          DCB      0x00,0x31,0xb1,0x00
001470  20b10020          DCB      0x20,0xb1,0x00,0x20
001474  b1003191          DCB      0xb1,0x00,0x31,0x91
001478  001f1300          DCB      0x00,0x1f,0x13,0x00
00147c  2e1e0020          DCB      0x2e,0x1e,0x00,0x20
001480  0e003000          DCB      0x0e,0x00,0x30,0x00
001484  00000004          DCB      0x00,0x00,0x00,0x04
001488  000807ff          DCB      0x00,0x08,0x07,0xff
00148c  f80ffff8          DCB      0xf8,0x0f,0xff,0xf8
001490  00100800          DCB      0x00,0x10,0x08,0x00
001494  20000020          DCB      0x20,0x00,0x00,0x20
001498  00002008          DCB      0x00,0x00,0x20,0x08
00149c  003ff800          DCB      0x00,0x3f,0xf8,0x00
0014a0  1ff80000          DCB      0x1f,0xf8,0x00,0x00
0014a4  08000000          DCB      0x08,0x00,0x00,0x00
0014a8  00000000          DCB      0x00,0x00,0x00,0x00
0014ac  00000020          DCB      0x00,0x00,0x00,0x20
0014b0  08002008          DCB      0x08,0x00,0x20,0x08
0014b4  00200806          DCB      0x00,0x20,0x08,0x06
0014b8  3ff8063f          DCB      0x3f,0xf8,0x06,0x3f
0014bc  f8000008          DCB      0xf8,0x00,0x00,0x08
0014c0  00000800          DCB      0x00,0x00,0x08,0x00
0014c4  00080000          DCB      0x00,0x08,0x00,0x00
0014c8  00000000          DCB      0x00,0x00,0x00,0x00
0014cc  00000000          DCB      0x00,0x00,0x00,0x00
0014d0  00000000          DCB      0x00,0x00,0x00,0x00
0014d4  03000003          DCB      0x03,0x00,0x00,0x03
0014d8  00200100          DCB      0x00,0x20,0x01,0x00
0014dc  20010020          DCB      0x20,0x01,0x00,0x20
0014e0  03063ffe          DCB      0x03,0x06,0x3f,0xfe
0014e4  063ffc00          DCB      0x06,0x3f,0xfc,0x00
0014e8  00000000          DCB      0x00,0x00,0x00,0x00
0014ec  00000000          DCB      0x00,0x00,0x00,0x00
0014f0  00000004          DCB      0x00,0x00,0x00,0x04
0014f4  000807ff          DCB      0x00,0x08,0x07,0xff
0014f8  f80ffff8          DCB      0xf8,0x0f,0xff,0xf8
0014fc  00018800          DCB      0x00,0x01,0x88,0x00
001500  0300002f          DCB      0x03,0x00,0x00,0x2f
001504  c00038f8          DCB      0xc0,0x00,0x38,0xf8
001508  00203800          DCB      0x00,0x20,0x38,0x00
00150c  20080000          DCB      0x20,0x08,0x00,0x00
001510  08000000          DCB      0x08,0x00,0x00,0x00
001514  00000000          DCB      0x00,0x00,0x00,0x00
001518  00000400          DCB      0x00,0x00,0x04,0x00
00151c  08040008          DCB      0x08,0x04,0x00,0x08
001520  04000807          DCB      0x04,0x00,0x08,0x07
001524  fff80fff          DCB      0xff,0xf8,0x0f,0xff
001528  f8000008          DCB      0xf8,0x00,0x00,0x08
00152c  00000800          DCB      0x00,0x00,0x08,0x00
001530  00080000          DCB      0x00,0x08,0x00,0x00
001534  00000000          DCB      0x00,0x00,0x00,0x00
001538  00200800          DCB      0x00,0x20,0x08,0x00
00153c  3ff8003f          DCB      0x3f,0xf8,0x00,0x3f
001540  f8001008          DCB      0xf8,0x00,0x10,0x08
001544  00200000          DCB      0x00,0x20,0x00,0x00
001548  3ff8003f          DCB      0x3f,0xf8,0x00,0x3f
00154c  f8001008          DCB      0xf8,0x00,0x10,0x08
001550  00200000          DCB      0x00,0x20,0x00,0x00
001554  3ff8003f          DCB      0x3f,0xf8,0x00,0x3f
001558  f8000008          DCB      0xf8,0x00,0x00,0x08
00155c  00000000          DCB      0x00,0x00,0x00,0x00
001560  2008003f          DCB      0x20,0x08,0x00,0x3f
001564  f8003ff8          DCB      0xf8,0x00,0x3f,0xf8
001568  00100800          DCB      0x00,0x10,0x08,0x00
00156c  10000020          DCB      0x10,0x00,0x00,0x20
001570  00002008          DCB      0x00,0x00,0x20,0x08
001574  003ff800          DCB      0x00,0x3f,0xf8,0x00
001578  1ff80000          DCB      0x1f,0xf8,0x00,0x00
00157c  08000000          DCB      0x08,0x00,0x00,0x00
001580  00000000          DCB      0x00,0x00,0x00,0x00
001584  07c0000f          DCB      0x07,0xc0,0x00,0x0f
001588  f0001830          DCB      0xf0,0x00,0x18,0x30
00158c  00300800          DCB      0x00,0x30,0x08,0x00
001590  20080020          DCB      0x20,0x08,0x00,0x20
001594  08003008          DCB      0x08,0x00,0x30,0x08
001598  00183000          DCB      0x00,0x18,0x30,0x00
00159c  0ff00007          DCB      0x0f,0xf0,0x00,0x07
0015a0  c0000000          DCB      0xc0,0x00,0x00,0x00
0015a4  00000000          DCB      0x00,0x00,0x00,0x00
0015a8  2001003f          DCB      0x20,0x01,0x00,0x3f
0015ac  ff003fff          DCB      0xff,0x00,0x3f,0xff
0015b0  00101100          DCB      0x00,0x10,0x11,0x00
0015b4  20090020          DCB      0x20,0x09,0x00,0x20
0015b8  08002008          DCB      0x08,0x00,0x20,0x08
0015bc  00303800          DCB      0x00,0x30,0x38,0x00
0015c0  1ff0000f          DCB      0x1f,0xf0,0x00,0x0f
0015c4  c0000000          DCB      0xc0,0x00,0x00,0x00
0015c8  00000000          DCB      0x00,0x00,0x00,0x00
0015cc  07c0001f          DCB      0x07,0xc0,0x00,0x1f
0015d0  f0003818          DCB      0xf0,0x00,0x38,0x18
0015d4  00200800          DCB      0x00,0x20,0x08,0x00
0015d8  20080020          DCB      0x20,0x08,0x00,0x20
0015dc  09001011          DCB      0x09,0x00,0x10,0x11
0015e0  001fff00          DCB      0x00,0x1f,0xff,0x00
0015e4  3fff0000          DCB      0x3f,0xff,0x00,0x00
0015e8  01000000          DCB      0x01,0x00,0x00,0x00
0015ec  00200800          DCB      0x00,0x20,0x08,0x00
0015f0  20080020          DCB      0x20,0x08,0x00,0x20
0015f4  08003ff8          DCB      0x08,0x00,0x3f,0xf8
0015f8  003ff800          DCB      0x00,0x3f,0xf8,0x00
0015fc  08080010          DCB      0x08,0x08,0x00,0x10
001600  08002008          DCB      0x08,0x00,0x20,0x08
001604  00200000          DCB      0x00,0x20,0x00,0x00
001608  30000030          DCB      0x30,0x00,0x00,0x30
00160c  00000000          DCB      0x00,0x00,0x00,0x00
001610  00000000          DCB      0x00,0x00,0x00,0x00
001614  0000000c          DCB      0x00,0x00,0x00,0x0c
001618  78001e18          DCB      0x78,0x00,0x1e,0x18
00161c  00330800          DCB      0x00,0x33,0x08,0x00
001620  23080021          DCB      0x23,0x08,0x00,0x21
001624  08002188          DCB      0x08,0x00,0x21,0x88
001628  00219800          DCB      0x00,0x21,0x98,0x00
00162c  30f00038          DCB      0x30,0xf0,0x00,0x38
001630  60000000          DCB      0x60,0x00,0x00,0x00
001634  00000000          DCB      0x00,0x00,0x00,0x00
001638  20000020          DCB      0x20,0x00,0x00,0x20
00163c  00002000          DCB      0x00,0x00,0x20,0x00
001640  00fff003          DCB      0x00,0xff,0xf0,0x03
001644  fff80020          DCB      0xff,0xf8,0x00,0x20
001648  08002008          DCB      0x08,0x00,0x20,0x08
00164c  00200800          DCB      0x00,0x20,0x08,0x00
001650  00300000          DCB      0x00,0x30,0x00,0x00
001654  00000000          DCB      0x00,0x00,0x00,0x00
001658  00000000          DCB      0x00,0x00,0x00,0x00
00165c  2000003f          DCB      0x20,0x00,0x00,0x3f
001660  f0007ff8          DCB      0xf0,0x00,0x7f,0xf8
001664  00001800          DCB      0x00,0x00,0x18,0x00
001668  00080000          DCB      0x00,0x08,0x00,0x00
00166c  08002010          DCB      0x08,0x00,0x20,0x10
001670  003ff800          DCB      0x00,0x3f,0xf8,0x00
001674  7ff00000          DCB      0x7f,0xf0,0x00,0x00
001678  10000000          DCB      0x10,0x00,0x00,0x00
00167c  00000000          DCB      0x00,0x00,0x00,0x00
001680  20000030          DCB      0x20,0x00,0x00,0x30
001684  00003c00          DCB      0x00,0x00,0x3c,0x00
001688  003f8000          DCB      0x00,0x3f,0x80,0x00
00168c  23f00000          DCB      0x23,0xf0,0x00,0x00
001690  78000070          DCB      0x78,0x00,0x00,0x70
001694  00238000          DCB      0x00,0x23,0x80,0x00
001698  3c000030          DCB      0x3c,0x00,0x00,0x30
00169c  00002000          DCB      0x00,0x00,0x20,0x00
0016a0  00200000          DCB      0x00,0x20,0x00,0x00
0016a4  3c00003f          DCB      0x3c,0x00,0x00,0x3f
0016a8  e00023f8          DCB      0xe0,0x00,0x23,0xf8
0016ac  0000e000          DCB      0x00,0x00,0xe0,0x00
0016b0  2700003e          DCB      0x27,0x00,0x00,0x3e
0016b4  00003fe0          DCB      0x00,0x00,0x3f,0xe0
0016b8  0021f800          DCB      0x00,0x21,0xf8,0x00
0016bc  01e0003e          DCB      0x01,0xe0,0x00,0x3e
0016c0  00002000          DCB      0x00,0x00,0x20,0x00
0016c4  00000000          DCB      0x00,0x00,0x00,0x00
0016c8  20080020          DCB      0x20,0x08,0x00,0x20
0016cc  08003838          DCB      0x08,0x00,0x38,0x38
0016d0  003e6800          DCB      0x00,0x3e,0x68,0x00
0016d4  27800003          DCB      0x27,0x80,0x00,0x03
0016d8  c8002cf8          DCB      0xc8,0x00,0x2c,0xf8
0016dc  00383800          DCB      0x00,0x38,0x38,0x00
0016e0  20180020          DCB      0x20,0x18,0x00,0x20
0016e4  08000000          DCB      0x08,0x00,0x00,0x00
0016e8  00000000          DCB      0x00,0x00,0x00,0x00
0016ec  20000030          DCB      0x20,0x00,0x00,0x30
0016f0  03003c01          DCB      0x03,0x00,0x3c,0x01
0016f4  003f8300          DCB      0x00,0x3f,0x83,0x00
0016f8  23ec0000          DCB      0x23,0xec,0x00,0x00
0016fc  70002380          DCB      0x70,0x00,0x23,0x80
001700  003c0000          DCB      0x00,0x3c,0x00,0x00
001704  20000020          DCB      0x20,0x00,0x00,0x20
001708  00000000          DCB      0x00,0x00,0x00,0x00
00170c  00000000          DCB      0x00,0x00,0x00,0x00
001710  00000038          DCB      0x00,0x00,0x00,0x38
001714  08002038          DCB      0x08,0x00,0x20,0x38
001718  0020f800          DCB      0x00,0x20,0xf8,0x00
00171c  23e8002f          DCB      0x23,0xe8,0x00,0x2f
001720  88003e08          DCB      0x88,0x00,0x3e,0x08
001724  00380800          DCB      0x00,0x38,0x08,0x00
001728  20180000          DCB      0x20,0x18,0x00,0x00
00172c  70000000          DCB      0x70,0x00,0x00,0x00
001730  00000000          DCB      0x00,0x00,0x00,0x00
001734  00000000          DCB      0x00,0x00,0x00,0x00
001738  00000000          DCB      0x00,0x00,0x00,0x00
00173c  00000000          DCB      0x00,0x00,0x00,0x00
001740  08000014          DCB      0x08,0x00,0x00,0x14
001744  001ff7fc          DCB      0x00,0x1f,0xf7,0xfc
001748  30000620          DCB      0x30,0x00,0x06,0x20
00174c  00020000          DCB      0x00,0x02,0x00,0x00
001750  00000000          DCB      0x00,0x00,0x00,0x00
001754  00000000          DCB      0x00,0x00,0x00,0x00
001758  00000000          DCB      0x00,0x00,0x00,0x00
00175c  00000000          DCB      0x00,0x00,0x00,0x00
001760  00000000          DCB      0x00,0x00,0x00,0x00
001764  0000ffff          DCB      0x00,0x00,0xff,0xff
001768  ff000000          DCB      0xff,0x00,0x00,0x00
00176c  00000000          DCB      0x00,0x00,0x00,0x00
001770  00000000          DCB      0x00,0x00,0x00,0x00
001774  00000000          DCB      0x00,0x00,0x00,0x00
001778  00000000          DCB      0x00,0x00,0x00,0x00
00177c  00002000          DCB      0x00,0x00,0x20,0x00
001780  02300006          DCB      0x02,0x30,0x00,0x06
001784  1ff7fc00          DCB      0x1f,0xf7,0xfc,0x00
001788  14000008          DCB      0x14,0x00,0x00,0x08
00178c  00000000          DCB      0x00,0x00,0x00,0x00
001790  00000000          DCB      0x00,0x00,0x00,0x00
001794  00000000          DCB      0x00,0x00,0x00,0x00
001798  00000000          DCB      0x00,0x00,0x00,0x00
00179c  00000018          DCB      0x00,0x00,0x00,0x18
0017a0  00006000          DCB      0x00,0x00,0x60,0x00
0017a4  00400000          DCB      0x00,0x40,0x00,0x00
0017a8  40000020          DCB      0x40,0x00,0x00,0x20
0017ac  00001000          DCB      0x00,0x00,0x10,0x00
0017b0  00080000          DCB      0x00,0x08,0x00,0x00
0017b4  04000004          DCB      0x04,0x00,0x00,0x04
0017b8  00000c00          DCB      0x00,0x00,0x0c,0x00
0017bc  00100000          DCB      0x00,0x10,0x00,0x00
                  asc2_3216
0017c0  00000000          DCB      0x00,0x00,0x00,0x00
0017c4  00000000          DCB      0x00,0x00,0x00,0x00
0017c8  00000000          DCB      0x00,0x00,0x00,0x00
0017cc  00000000          DCB      0x00,0x00,0x00,0x00
0017d0  00000000          DCB      0x00,0x00,0x00,0x00
0017d4  00000000          DCB      0x00,0x00,0x00,0x00
0017d8  00000000          DCB      0x00,0x00,0x00,0x00
0017dc  00000000          DCB      0x00,0x00,0x00,0x00
0017e0  00000000          DCB      0x00,0x00,0x00,0x00
0017e4  00000000          DCB      0x00,0x00,0x00,0x00
0017e8  00000000          DCB      0x00,0x00,0x00,0x00
0017ec  00000000          DCB      0x00,0x00,0x00,0x00
0017f0  00000000          DCB      0x00,0x00,0x00,0x00
0017f4  00000000          DCB      0x00,0x00,0x00,0x00
0017f8  00000000          DCB      0x00,0x00,0x00,0x00
0017fc  00000000          DCB      0x00,0x00,0x00,0x00
                          %        64
001840  00000000          DCB      0x00,0x00,0x00,0x00
001844  00000000          DCB      0x00,0x00,0x00,0x00
001848  00000000          DCB      0x00,0x00,0x00,0x00
00184c  00000000          DCB      0x00,0x00,0x00,0x00
001850  00000000          DCB      0x00,0x00,0x00,0x00
001854  00000000          DCB      0x00,0x00,0x00,0x00
001858  07f000c0          DCB      0x07,0xf0,0x00,0xc0
00185c  07ffe1e0          DCB      0x07,0xff,0xe1,0xe0
001860  07f001e0          DCB      0x07,0xf0,0x01,0xe0
001864  000000c0          DCB      0x00,0x00,0x00,0xc0
001868  00000000          DCB      0x00,0x00,0x00,0x00
00186c  00000000          DCB      0x00,0x00,0x00,0x00
001870  00000000          DCB      0x00,0x00,0x00,0x00
001874  00000000          DCB      0x00,0x00,0x00,0x00
001878  00000000          DCB      0x00,0x00,0x00,0x00
00187c  00000000          DCB      0x00,0x00,0x00,0x00
                          %        64
0018c0  00000000          DCB      0x00,0x00,0x00,0x00
0018c4  00000000          DCB      0x00,0x00,0x00,0x00
0018c8  00200000          DCB      0x00,0x20,0x00,0x00
0018cc  01c00000          DCB      0x01,0xc0,0x00,0x00
0018d0  07800000          DCB      0x07,0x80,0x00,0x00
0018d4  1f000000          DCB      0x1f,0x00,0x00,0x00
0018d8  1e000000          DCB      0x1e,0x00,0x00,0x00
0018dc  1c200000          DCB      0x1c,0x20,0x00,0x00
0018e0  01c00000          DCB      0x01,0xc0,0x00,0x00
0018e4  07800000          DCB      0x07,0x80,0x00,0x00
0018e8  1f000000          DCB      0x1f,0x00,0x00,0x00
0018ec  1e000000          DCB      0x1e,0x00,0x00,0x00
0018f0  1c000000          DCB      0x1c,0x00,0x00,0x00
0018f4  00000000          DCB      0x00,0x00,0x00,0x00
0018f8  00000000          DCB      0x00,0x00,0x00,0x00
0018fc  00000000          DCB      0x00,0x00,0x00,0x00
                          %        64
001940  00000000          DCB      0x00,0x00,0x00,0x00
001944  00180c00          DCB      0x00,0x18,0x0c,0x00
001948  00180c00          DCB      0x00,0x18,0x0c,0x00
00194c  00180fe0          DCB      0x00,0x18,0x0f,0xe0
001950  001ffc00          DCB      0x00,0x1f,0xfc,0x00
001954  03f80c00          DCB      0x03,0xf8,0x0c,0x00
001958  00180c00          DCB      0x00,0x18,0x0c,0x00
00195c  00180c00          DCB      0x00,0x18,0x0c,0x00
001960  00180c00          DCB      0x00,0x18,0x0c,0x00
001964  00180c00          DCB      0x00,0x18,0x0c,0x00
001968  00180fe0          DCB      0x00,0x18,0x0f,0xe0
00196c  001ffc00          DCB      0x00,0x1f,0xfc,0x00
001970  03f80c00          DCB      0x03,0xf8,0x0c,0x00
001974  00180c00          DCB      0x00,0x18,0x0c,0x00
001978  00180c00          DCB      0x00,0x18,0x0c,0x00
00197c  00000000          DCB      0x00,0x00,0x00,0x00
                          %        64
0019c0  00000000          DCB      0x00,0x00,0x00,0x00
0019c4  00000000          DCB      0x00,0x00,0x00,0x00
0019c8  00000780          DCB      0x00,0x00,0x07,0x80
0019cc  007807c0          DCB      0x00,0x78,0x07,0xc0
0019d0  00fc0640          DCB      0x00,0xfc,0x06,0x40
0019d4  010e0020          DCB      0x01,0x0e,0x00,0x20
0019d8  03070020          DCB      0x03,0x07,0x00,0x20
0019dc  02038020          DCB      0x02,0x03,0x80,0x20
0019e0  0ffffffc          DCB      0x0f,0xff,0xff,0xfc
0019e4  0201c020          DCB      0x02,0x01,0xc0,0x20
0019e8  0200e060          DCB      0x02,0x00,0xe0,0x60
0019ec  01307040          DCB      0x01,0x30,0x70,0x40
0019f0  01f03f80          DCB      0x01,0xf0,0x3f,0x80
0019f4  00f01f00          DCB      0x00,0xf0,0x1f,0x00
0019f8  00000000          DCB      0x00,0x00,0x00,0x00
0019fc  00000000          DCB      0x00,0x00,0x00,0x00
                          %        64
001a40  00fe0000          DCB      0x00,0xfe,0x00,0x00
001a44  01ff0000          DCB      0x01,0xff,0x00,0x00
001a48  03018000          DCB      0x03,0x01,0x80,0x00
001a4c  02008060          DCB      0x02,0x00,0x80,0x60
001a50  030181c0          DCB      0x03,0x01,0x81,0xc0
001a54  01ff0700          DCB      0x01,0xff,0x07,0x00
001a58  00fe1800          DCB      0x00,0xfe,0x18,0x00
001a5c  0000e000          DCB      0x00,0x00,0xe0,0x00
001a60  0003bf00          DCB      0x00,0x03,0xbf,0x00
001a64  000cffc0          DCB      0x00,0x0c,0xff,0xc0
001a68  00718060          DCB      0x00,0x71,0x80,0x60
001a6c  01c10020          DCB      0x01,0xc1,0x00,0x20
001a70  03018060          DCB      0x03,0x01,0x80,0x60
001a74  0000ffc0          DCB      0x00,0x00,0xff,0xc0
001a78  00003f00          DCB      0x00,0x00,0x3f,0x00
001a7c  00000000          DCB      0x00,0x00,0x00,0x00
                          %        64
001ac0  00001f00          DCB      0x00,0x00,0x1f,0x00
001ac4  00007fc0          DCB      0x00,0x00,0x7f,0xc0
001ac8  00fcc0c0          DCB      0x00,0xfc,0xc0,0xc0
001acc  01ff8060          DCB      0x01,0xff,0x80,0x60
001ad0  0303e020          DCB      0x03,0x03,0xe0,0x20
001ad4  02027820          DCB      0x02,0x02,0x78,0x20
001ad8  02061e20          DCB      0x02,0x06,0x1e,0x20
001adc  03fc0740          DCB      0x03,0xfc,0x07,0x40
001ae0  01f00380          DCB      0x01,0xf0,0x03,0x80
001ae4  000103c0          DCB      0x00,0x01,0x03,0xc0
001ae8  00011c60          DCB      0x00,0x01,0x1c,0x60
001aec  0001e020          DCB      0x00,0x01,0xe0,0x20
001af0  00010020          DCB      0x00,0x01,0x00,0x20
001af4  00010040          DCB      0x00,0x01,0x00,0x40
001af8  00000180          DCB      0x00,0x00,0x01,0x80
001afc  00000000          DCB      0x00,0x00,0x00,0x00
                          %        64
001b40  00000000          DCB      0x00,0x00,0x00,0x00
001b44  00200000          DCB      0x00,0x20,0x00,0x00
001b48  1c600000          DCB      0x1c,0x60,0x00,0x00
001b4c  1c400000          DCB      0x1c,0x40,0x00,0x00
001b50  1f800000          DCB      0x1f,0x80,0x00,0x00
001b54  0f000000          DCB      0x0f,0x00,0x00,0x00
001b58  00000000          DCB      0x00,0x00,0x00,0x00
001b5c  00000000          DCB      0x00,0x00,0x00,0x00
001b60  00000000          DCB      0x00,0x00,0x00,0x00
001b64  00000000          DCB      0x00,0x00,0x00,0x00
001b68  00000000          DCB      0x00,0x00,0x00,0x00
001b6c  00000000          DCB      0x00,0x00,0x00,0x00
001b70  00000000          DCB      0x00,0x00,0x00,0x00
001b74  00000000          DCB      0x00,0x00,0x00,0x00
001b78  00000000          DCB      0x00,0x00,0x00,0x00
001b7c  00000000          DCB      0x00,0x00,0x00,0x00
                          %        64
001bc0  00000000          DCB      0x00,0x00,0x00,0x00
001bc4  00000000          DCB      0x00,0x00,0x00,0x00
001bc8  00000000          DCB      0x00,0x00,0x00,0x00
001bcc  00000000          DCB      0x00,0x00,0x00,0x00
001bd0  00000000          DCB      0x00,0x00,0x00,0x00
001bd4  00000000          DCB      0x00,0x00,0x00,0x00
001bd8  00000000          DCB      0x00,0x00,0x00,0x00
001bdc  0007f800          DCB      0x00,0x07,0xf8,0x00
001be0  003fff00          DCB      0x00,0x3f,0xff,0x00
001be4  007807c0          DCB      0x00,0x78,0x07,0xc0
001be8  01c000e0          DCB      0x01,0xc0,0x00,0xe0
001bec  03000030          DCB      0x03,0x00,0x00,0x30
001bf0  04000008          DCB      0x04,0x00,0x00,0x08
001bf4  08000004          DCB      0x08,0x00,0x00,0x04
001bf8  10000002          DCB      0x10,0x00,0x00,0x02
001bfc  00000000          DCB      0x00,0x00,0x00,0x00
                          %        64
001c40  00000000          DCB      0x00,0x00,0x00,0x00
001c44  10000002          DCB      0x10,0x00,0x00,0x02
001c48  08000004          DCB      0x08,0x00,0x00,0x04
001c4c  04000008          DCB      0x04,0x00,0x00,0x08
001c50  03000030          DCB      0x03,0x00,0x00,0x30
001c54  01c000e0          DCB      0x01,0xc0,0x00,0xe0
001c58  007807c0          DCB      0x00,0x78,0x07,0xc0
001c5c  003fff00          DCB      0x00,0x3f,0xff,0x00
001c60  0007f800          DCB      0x00,0x07,0xf8,0x00
001c64  00000000          DCB      0x00,0x00,0x00,0x00
001c68  00000000          DCB      0x00,0x00,0x00,0x00
001c6c  00000000          DCB      0x00,0x00,0x00,0x00
001c70  00000000          DCB      0x00,0x00,0x00,0x00
001c74  00000000          DCB      0x00,0x00,0x00,0x00
001c78  00000000          DCB      0x00,0x00,0x00,0x00
001c7c  00000000          DCB      0x00,0x00,0x00,0x00
                          %        64
001cc0  00000000          DCB      0x00,0x00,0x00,0x00
001cc4  00000000          DCB      0x00,0x00,0x00,0x00
001cc8  000c1800          DCB      0x00,0x0c,0x18,0x00
001ccc  000e3800          DCB      0x00,0x0e,0x38,0x00
001cd0  000e3800          DCB      0x00,0x0e,0x38,0x00
001cd4  00063000          DCB      0x00,0x06,0x30,0x00
001cd8  00036000          DCB      0x00,0x03,0x60,0x00
001cdc  00614380          DCB      0x00,0x61,0x43,0x80
001ce0  00ffff80          DCB      0x00,0xff,0xff,0x80
001ce4  00614300          DCB      0x00,0x61,0x43,0x00
001ce8  00036000          DCB      0x00,0x03,0x60,0x00
001cec  00063000          DCB      0x00,0x06,0x30,0x00
001cf0  000e3800          DCB      0x00,0x0e,0x38,0x00
001cf4  000e3800          DCB      0x00,0x0e,0x38,0x00
001cf8  000c1800          DCB      0x00,0x0c,0x18,0x00
001cfc  00000000          DCB      0x00,0x00,0x00,0x00
                          %        64
001d40  00000000          DCB      0x00,0x00,0x00,0x00
001d44  00000000          DCB      0x00,0x00,0x00,0x00
001d48  00008000          DCB      0x00,0x00,0x80,0x00
001d4c  00008000          DCB      0x00,0x00,0x80,0x00
001d50  00008000          DCB      0x00,0x00,0x80,0x00
001d54  00008000          DCB      0x00,0x00,0x80,0x00
001d58  00008000          DCB      0x00,0x00,0x80,0x00
001d5c  00008000          DCB      0x00,0x00,0x80,0x00
001d60  007fff00          DCB      0x00,0x7f,0xff,0x00
001d64  00008000          DCB      0x00,0x00,0x80,0x00
001d68  00008000          DCB      0x00,0x00,0x80,0x00
001d6c  00008000          DCB      0x00,0x00,0x80,0x00
001d70  00008000          DCB      0x00,0x00,0x80,0x00
001d74  00008000          DCB      0x00,0x00,0x80,0x00
001d78  00008000          DCB      0x00,0x00,0x80,0x00
001d7c  00000000          DCB      0x00,0x00,0x00,0x00
                          %        64
001dc0  00000000          DCB      0x00,0x00,0x00,0x00
001dc4  00000001          DCB      0x00,0x00,0x00,0x01
001dc8  000000e3          DCB      0x00,0x00,0x00,0xe3
001dcc  000000e2          DCB      0x00,0x00,0x00,0xe2
001dd0  000000fc          DCB      0x00,0x00,0x00,0xfc
001dd4  00000078          DCB      0x00,0x00,0x00,0x78
001dd8  00000000          DCB      0x00,0x00,0x00,0x00
001ddc  00000000          DCB      0x00,0x00,0x00,0x00
001de0  00000000          DCB      0x00,0x00,0x00,0x00
001de4  00000000          DCB      0x00,0x00,0x00,0x00
001de8  00000000          DCB      0x00,0x00,0x00,0x00
001dec  00000000          DCB      0x00,0x00,0x00,0x00
001df0  00000000          DCB      0x00,0x00,0x00,0x00
001df4  00000000          DCB      0x00,0x00,0x00,0x00
001df8  00000000          DCB      0x00,0x00,0x00,0x00
001dfc  00000000          DCB      0x00,0x00,0x00,0x00
                          %        64
001e40  00000000          DCB      0x00,0x00,0x00,0x00
001e44  00008000          DCB      0x00,0x00,0x80,0x00
001e48  00008000          DCB      0x00,0x00,0x80,0x00
001e4c  00008000          DCB      0x00,0x00,0x80,0x00
001e50  00008000          DCB      0x00,0x00,0x80,0x00
001e54  00008000          DCB      0x00,0x00,0x80,0x00
001e58  00008000          DCB      0x00,0x00,0x80,0x00
001e5c  00008000          DCB      0x00,0x00,0x80,0x00
001e60  00008000          DCB      0x00,0x00,0x80,0x00
001e64  00008000          DCB      0x00,0x00,0x80,0x00
001e68  00008000          DCB      0x00,0x00,0x80,0x00
001e6c  00008000          DCB      0x00,0x00,0x80,0x00
001e70  00008000          DCB      0x00,0x00,0x80,0x00
001e74  00008000          DCB      0x00,0x00,0x80,0x00
001e78  00008000          DCB      0x00,0x00,0x80,0x00
001e7c  00000000          DCB      0x00,0x00,0x00,0x00
                          %        64
001ec0  00000000          DCB      0x00,0x00,0x00,0x00
001ec4  00000000          DCB      0x00,0x00,0x00,0x00
001ec8  000000c0          DCB      0x00,0x00,0x00,0xc0
001ecc  000001e0          DCB      0x00,0x00,0x01,0xe0
001ed0  000001e0          DCB      0x00,0x00,0x01,0xe0
001ed4  000000c0          DCB      0x00,0x00,0x00,0xc0
001ed8  00000000          DCB      0x00,0x00,0x00,0x00
001edc  00000000          DCB      0x00,0x00,0x00,0x00
001ee0  00000000          DCB      0x00,0x00,0x00,0x00
001ee4  00000000          DCB      0x00,0x00,0x00,0x00
001ee8  00000000          DCB      0x00,0x00,0x00,0x00
001eec  00000000          DCB      0x00,0x00,0x00,0x00
001ef0  00000000          DCB      0x00,0x00,0x00,0x00
001ef4  00000000          DCB      0x00,0x00,0x00,0x00
001ef8  00000000          DCB      0x00,0x00,0x00,0x00
001efc  00000000          DCB      0x00,0x00,0x00,0x00
                          %        64
001f40  00000000          DCB      0x00,0x00,0x00,0x00
001f44  0000000c          DCB      0x00,0x00,0x00,0x0c
001f48  00000038          DCB      0x00,0x00,0x00,0x38
001f4c  000000e0          DCB      0x00,0x00,0x00,0xe0
001f50  00000380          DCB      0x00,0x00,0x03,0x80
001f54  00000e00          DCB      0x00,0x00,0x0e,0x00
001f58  00003800          DCB      0x00,0x00,0x38,0x00
001f5c  0000e000          DCB      0x00,0x00,0xe0,0x00
001f60  00038000          DCB      0x00,0x03,0x80,0x00
001f64  000e0000          DCB      0x00,0x0e,0x00,0x00
001f68  00380000          DCB      0x00,0x38,0x00,0x00
001f6c  00e00000          DCB      0x00,0xe0,0x00,0x00
001f70  03800000          DCB      0x03,0x80,0x00,0x00
001f74  0e000000          DCB      0x0e,0x00,0x00,0x00
001f78  18000000          DCB      0x18,0x00,0x00,0x00
001f7c  00000000          DCB      0x00,0x00,0x00,0x00
                          %        64
001fc0  00000000          DCB      0x00,0x00,0x00,0x00
001fc4  00000000          DCB      0x00,0x00,0x00,0x00
001fc8  000ff800          DCB      0x00,0x0f,0xf8,0x00
001fcc  007fff00          DCB      0x00,0x7f,0xff,0x00
001fd0  00f00780          DCB      0x00,0xf0,0x07,0x80
001fd4  018000c0          DCB      0x01,0x80,0x00,0xc0
001fd8  03000060          DCB      0x03,0x00,0x00,0x60
001fdc  02000020          DCB      0x02,0x00,0x00,0x20
001fe0  02000020          DCB      0x02,0x00,0x00,0x20
001fe4  02000020          DCB      0x02,0x00,0x00,0x20
001fe8  03000060          DCB      0x03,0x00,0x00,0x60
001fec  018000c0          DCB      0x01,0x80,0x00,0xc0
001ff0  00e00380          DCB      0x00,0xe0,0x03,0x80
001ff4  007fff00          DCB      0x00,0x7f,0xff,0x00
001ff8  000ff800          DCB      0x00,0x0f,0xf8,0x00
001ffc  00000000          DCB      0x00,0x00,0x00,0x00
                          %        64
002040  00000000          DCB      0x00,0x00,0x00,0x00
002044  00000000          DCB      0x00,0x00,0x00,0x00
002048  00000000          DCB      0x00,0x00,0x00,0x00
00204c  00800020          DCB      0x00,0x80,0x00,0x20
002050  00800020          DCB      0x00,0x80,0x00,0x20
002054  00800020          DCB      0x00,0x80,0x00,0x20
002058  00800060          DCB      0x00,0x80,0x00,0x60
00205c  01ffffe0          DCB      0x01,0xff,0xff,0xe0
002060  03ffffe0          DCB      0x03,0xff,0xff,0xe0
002064  00000060          DCB      0x00,0x00,0x00,0x60
002068  00000020          DCB      0x00,0x00,0x00,0x20
00206c  00000020          DCB      0x00,0x00,0x00,0x20
002070  00000020          DCB      0x00,0x00,0x00,0x20
002074  00000000          DCB      0x00,0x00,0x00,0x00
002078  00000000          DCB      0x00,0x00,0x00,0x00
00207c  00000000          DCB      0x00,0x00,0x00,0x00
                          %        64
0020c0  00000000          DCB      0x00,0x00,0x00,0x00
0020c4  00000000          DCB      0x00,0x00,0x00,0x00
0020c8  007800e0          DCB      0x00,0x78,0x00,0xe0
0020cc  00980160          DCB      0x00,0x98,0x01,0x60
0020d0  01000260          DCB      0x01,0x00,0x02,0x60
0020d4  02000460          DCB      0x02,0x00,0x04,0x60
0020d8  02000860          DCB      0x02,0x00,0x08,0x60
0020dc  02001060          DCB      0x02,0x00,0x10,0x60
0020e0  02002060          DCB      0x02,0x00,0x20,0x60
0020e4  02004060          DCB      0x02,0x00,0x40,0x60
0020e8  03008060          DCB      0x03,0x00,0x80,0x60
0020ec  01830060          DCB      0x01,0x83,0x00,0x60
0020f0  01fe00e0          DCB      0x01,0xfe,0x00,0xe0
0020f4  007c0780          DCB      0x00,0x7c,0x07,0x80
0020f8  00000000          DCB      0x00,0x00,0x00,0x00
0020fc  00000000          DCB      0x00,0x00,0x00,0x00
                          %        64
002140  00000000          DCB      0x00,0x00,0x00,0x00
002144  00000000          DCB      0x00,0x00,0x00,0x00
002148  00f00780          DCB      0x00,0xf0,0x07,0x80
00214c  01f007c0          DCB      0x01,0xf0,0x07,0xc0
002150  01000040          DCB      0x01,0x00,0x00,0x40
002154  02000020          DCB      0x02,0x00,0x00,0x20
002158  02010020          DCB      0x02,0x01,0x00,0x20
00215c  02010020          DCB      0x02,0x01,0x00,0x20
002160  02010020          DCB      0x02,0x01,0x00,0x20
002164  03038020          DCB      0x03,0x03,0x80,0x20
002168  01868040          DCB      0x01,0x86,0x80,0x40
00216c  01fcc0c0          DCB      0x01,0xfc,0xc0,0xc0
002170  00787f80          DCB      0x00,0x78,0x7f,0x80
002174  00001e00          DCB      0x00,0x00,0x1e,0x00
002178  00000000          DCB      0x00,0x00,0x00,0x00
00217c  00000000          DCB      0x00,0x00,0x00,0x00
                          %        64
0021c0  00000000          DCB      0x00,0x00,0x00,0x00
0021c4  00000800          DCB      0x00,0x00,0x08,0x00
0021c8  00003800          DCB      0x00,0x00,0x38,0x00
0021cc  00004800          DCB      0x00,0x00,0x48,0x00
0021d0  00018800          DCB      0x00,0x01,0x88,0x00
0021d4  00060800          DCB      0x00,0x06,0x08,0x00
0021d8  000c0810          DCB      0x00,0x0c,0x08,0x10
0021dc  00300810          DCB      0x00,0x30,0x08,0x10
0021e0  00400810          DCB      0x00,0x40,0x08,0x10
0021e4  01fffff0          DCB      0x01,0xff,0xff,0xf0
0021e8  03fffff0          DCB      0x03,0xff,0xff,0xf0
0021ec  03fffff0          DCB      0x03,0xff,0xff,0xf0
0021f0  00000810          DCB      0x00,0x00,0x08,0x10
0021f4  00000810          DCB      0x00,0x00,0x08,0x10
0021f8  00000810          DCB      0x00,0x00,0x08,0x10
0021fc  00000000          DCB      0x00,0x00,0x00,0x00
                          %        64
002240  00000000          DCB      0x00,0x00,0x00,0x00
002244  00000000          DCB      0x00,0x00,0x00,0x00
002248  00000780          DCB      0x00,0x00,0x07,0x80
00224c  001f8640          DCB      0x00,0x1f,0x86,0x40
002250  03e10020          DCB      0x03,0xe1,0x00,0x20
002254  03020020          DCB      0x03,0x02,0x00,0x20
002258  03040020          DCB      0x03,0x04,0x00,0x20
00225c  03040020          DCB      0x03,0x04,0x00,0x20
002260  03040020          DCB      0x03,0x04,0x00,0x20
002264  03040020          DCB      0x03,0x04,0x00,0x20
002268  03060040          DCB      0x03,0x06,0x00,0x40
00226c  030301c0          DCB      0x03,0x03,0x01,0xc0
002270  0301ff80          DCB      0x03,0x01,0xff,0x80
002274  03007e00          DCB      0x03,0x00,0x7e,0x00
002278  00000000          DCB      0x00,0x00,0x00,0x00
00227c  00000000          DCB      0x00,0x00,0x00,0x00
                          %        64
0022c0  00000000          DCB      0x00,0x00,0x00,0x00
0022c4  00000000          DCB      0x00,0x00,0x00,0x00
0022c8  0007fc00          DCB      0x00,0x07,0xfc,0x00
0022cc  003fff00          DCB      0x00,0x3f,0xff,0x00
0022d0  0070c380          DCB      0x00,0x70,0xc3,0x80
0022d4  008180c0          DCB      0x00,0x81,0x80,0xc0
0022d8  01010060          DCB      0x01,0x01,0x00,0x60
0022dc  03020020          DCB      0x03,0x02,0x00,0x20
0022e0  02020020          DCB      0x02,0x02,0x00,0x20
0022e4  02020020          DCB      0x02,0x02,0x00,0x20
0022e8  02020020          DCB      0x02,0x02,0x00,0x20
0022ec  02030040          DCB      0x02,0x03,0x00,0x40
0022f0  01c180c0          DCB      0x01,0xc1,0x80,0xc0
0022f4  00c0ff80          DCB      0x00,0xc0,0xff,0x80
0022f8  00007e00          DCB      0x00,0x00,0x7e,0x00
0022fc  00000000          DCB      0x00,0x00,0x00,0x00
                          %        64
002340  00000000          DCB      0x00,0x00,0x00,0x00
002344  00000000          DCB      0x00,0x00,0x00,0x00
002348  00f00000          DCB      0x00,0xf0,0x00,0x00
00234c  03c00000          DCB      0x03,0xc0,0x00,0x00
002350  03800000          DCB      0x03,0x80,0x00,0x00
002354  03000000          DCB      0x03,0x00,0x00,0x00
002358  030007e0          DCB      0x03,0x00,0x07,0xe0
00235c  03003fe0          DCB      0x03,0x00,0x3f,0xe0
002360  0301c000          DCB      0x03,0x01,0xc0,0x00
002364  03060000          DCB      0x03,0x06,0x00,0x00
002368  03180000          DCB      0x03,0x18,0x00,0x00
00236c  03600000          DCB      0x03,0x60,0x00,0x00
002370  03800000          DCB      0x03,0x80,0x00,0x00
002374  03000000          DCB      0x03,0x00,0x00,0x00
002378  00000000          DCB      0x00,0x00,0x00,0x00
00237c  00000000          DCB      0x00,0x00,0x00,0x00
                          %        64
0023c0  00000000          DCB      0x00,0x00,0x00,0x00
0023c4  00001f00          DCB      0x00,0x00,0x1f,0x00
0023c8  00783f80          DCB      0x00,0x78,0x3f,0x80
0023cc  00fc60c0          DCB      0x00,0xfc,0x60,0xc0
0023d0  018ec040          DCB      0x01,0x8e,0xc0,0x40
0023d4  03078020          DCB      0x03,0x07,0x80,0x20
0023d8  02030020          DCB      0x02,0x03,0x00,0x20
0023dc  02018020          DCB      0x02,0x01,0x80,0x20
0023e0  02018020          DCB      0x02,0x01,0x80,0x20
0023e4  0201c020          DCB      0x02,0x01,0xc0,0x20
0023e8  0301e040          DCB      0x03,0x01,0xe0,0x40
0023ec  018670c0          DCB      0x01,0x86,0x70,0xc0
0023f0  00fc3f80          DCB      0x00,0xfc,0x3f,0x80
0023f4  00781f00          DCB      0x00,0x78,0x1f,0x00
0023f8  00000000          DCB      0x00,0x00,0x00,0x00
0023fc  00000000          DCB      0x00,0x00,0x00,0x00
                          %        64
002440  00000000          DCB      0x00,0x00,0x00,0x00
002444  003f0000          DCB      0x00,0x3f,0x00,0x00
002448  00ff81c0          DCB      0x00,0xff,0x81,0xc0
00244c  01c0c1c0          DCB      0x01,0xc0,0xc1,0xc0
002450  01006020          DCB      0x01,0x00,0x60,0x20
002454  02002020          DCB      0x02,0x00,0x20,0x20
002458  02002020          DCB      0x02,0x00,0x20,0x20
00245c  02002020          DCB      0x02,0x00,0x20,0x20
002460  02002060          DCB      0x02,0x00,0x20,0x60
002464  020040c0          DCB      0x02,0x00,0x40,0xc0
002468  0100c180          DCB      0x01,0x00,0xc1,0x80
00246c  00c18f00          DCB      0x00,0xc1,0x8f,0x00
002470  007ffe00          DCB      0x00,0x7f,0xfe,0x00
002474  001ff000          DCB      0x00,0x1f,0xf0,0x00
002478  00000000          DCB      0x00,0x00,0x00,0x00
00247c  00000000          DCB      0x00,0x00,0x00,0x00
                          %        64
0024c0  00000000          DCB      0x00,0x00,0x00,0x00
0024c4  00000000          DCB      0x00,0x00,0x00,0x00
0024c8  00000000          DCB      0x00,0x00,0x00,0x00
0024cc  00000000          DCB      0x00,0x00,0x00,0x00
0024d0  00000000          DCB      0x00,0x00,0x00,0x00
0024d4  00000000          DCB      0x00,0x00,0x00,0x00
0024d8  000300c0          DCB      0x00,0x03,0x00,0xc0
0024dc  000781e0          DCB      0x00,0x07,0x81,0xe0
0024e0  000781e0          DCB      0x00,0x07,0x81,0xe0
0024e4  000300c0          DCB      0x00,0x03,0x00,0xc0
0024e8  00000000          DCB      0x00,0x00,0x00,0x00
0024ec  00000000          DCB      0x00,0x00,0x00,0x00
0024f0  00000000          DCB      0x00,0x00,0x00,0x00
0024f4  00000000          DCB      0x00,0x00,0x00,0x00
0024f8  00000000          DCB      0x00,0x00,0x00,0x00
0024fc  00000000          DCB      0x00,0x00,0x00,0x00
                          %        64
002540  00000000          DCB      0x00,0x00,0x00,0x00
002544  00000000          DCB      0x00,0x00,0x00,0x00
002548  00000000          DCB      0x00,0x00,0x00,0x00
00254c  00000000          DCB      0x00,0x00,0x00,0x00
002550  00000000          DCB      0x00,0x00,0x00,0x00
002554  00000000          DCB      0x00,0x00,0x00,0x00
002558  00060066          DCB      0x00,0x06,0x00,0x66
00255c  00060078          DCB      0x00,0x06,0x00,0x78
002560  00000000          DCB      0x00,0x00,0x00,0x00
002564  00000000          DCB      0x00,0x00,0x00,0x00
002568  00000000          DCB      0x00,0x00,0x00,0x00
00256c  00000000          DCB      0x00,0x00,0x00,0x00
002570  00000000          DCB      0x00,0x00,0x00,0x00
002574  00000000          DCB      0x00,0x00,0x00,0x00
002578  00000000          DCB      0x00,0x00,0x00,0x00
00257c  00000000          DCB      0x00,0x00,0x00,0x00
                          %        64
0025c0  00000000          DCB      0x00,0x00,0x00,0x00
0025c4  00000000          DCB      0x00,0x00,0x00,0x00
0025c8  00008000          DCB      0x00,0x00,0x80,0x00
0025cc  0001c000          DCB      0x00,0x01,0xc0,0x00
0025d0  00036000          DCB      0x00,0x03,0x60,0x00
0025d4  00063000          DCB      0x00,0x06,0x30,0x00
0025d8  000c1800          DCB      0x00,0x0c,0x18,0x00
0025dc  00180c00          DCB      0x00,0x18,0x0c,0x00
0025e0  00300600          DCB      0x00,0x30,0x06,0x00
0025e4  00600300          DCB      0x00,0x60,0x03,0x00
0025e8  00c00180          DCB      0x00,0xc0,0x01,0x80
0025ec  01000040          DCB      0x01,0x00,0x00,0x40
0025f0  02000020          DCB      0x02,0x00,0x00,0x20
0025f4  04000010          DCB      0x04,0x00,0x00,0x10
0025f8  00000000          DCB      0x00,0x00,0x00,0x00
0025fc  00000000          DCB      0x00,0x00,0x00,0x00
                          %        64
002640  00000000          DCB      0x00,0x00,0x00,0x00
002644  00041000          DCB      0x00,0x04,0x10,0x00
002648  00041000          DCB      0x00,0x04,0x10,0x00
00264c  00041000          DCB      0x00,0x04,0x10,0x00
002650  00041000          DCB      0x00,0x04,0x10,0x00
002654  00041000          DCB      0x00,0x04,0x10,0x00
002658  00041000          DCB      0x00,0x04,0x10,0x00
00265c  00041000          DCB      0x00,0x04,0x10,0x00
002660  00041000          DCB      0x00,0x04,0x10,0x00
002664  00041000          DCB      0x00,0x04,0x10,0x00
002668  00041000          DCB      0x00,0x04,0x10,0x00
00266c  00041000          DCB      0x00,0x04,0x10,0x00
002670  00041000          DCB      0x00,0x04,0x10,0x00
002674  00041000          DCB      0x00,0x04,0x10,0x00
002678  00041000          DCB      0x00,0x04,0x10,0x00
00267c  00000000          DCB      0x00,0x00,0x00,0x00
                          %        64
0026c0  00000000          DCB      0x00,0x00,0x00,0x00
0026c4  00000000          DCB      0x00,0x00,0x00,0x00
0026c8  04000010          DCB      0x04,0x00,0x00,0x10
0026cc  02000020          DCB      0x02,0x00,0x00,0x20
0026d0  01000040          DCB      0x01,0x00,0x00,0x40
0026d4  00c00180          DCB      0x00,0xc0,0x01,0x80
0026d8  00600300          DCB      0x00,0x60,0x03,0x00
0026dc  00300600          DCB      0x00,0x30,0x06,0x00
0026e0  00180c00          DCB      0x00,0x18,0x0c,0x00
0026e4  000c1800          DCB      0x00,0x0c,0x18,0x00
0026e8  00063000          DCB      0x00,0x06,0x30,0x00
0026ec  00036000          DCB      0x00,0x03,0x60,0x00
0026f0  0001c000          DCB      0x00,0x01,0xc0,0x00
0026f4  00008000          DCB      0x00,0x00,0x80,0x00
0026f8  00000000          DCB      0x00,0x00,0x00,0x00
0026fc  00000000          DCB      0x00,0x00,0x00,0x00
                          %        64
002740  00000000          DCB      0x00,0x00,0x00,0x00
002744  00000000          DCB      0x00,0x00,0x00,0x00
002748  00780000          DCB      0x00,0x78,0x00,0x00
00274c  01f80000          DCB      0x01,0xf8,0x00,0x00
002750  02380000          DCB      0x02,0x38,0x00,0x00
002754  02000000          DCB      0x02,0x00,0x00,0x00
002758  040000c0          DCB      0x04,0x00,0x00,0xc0
00275c  040079e0          DCB      0x04,0x00,0x79,0xe0
002760  040081e0          DCB      0x04,0x00,0x81,0xe0
002764  040100c0          DCB      0x04,0x01,0x00,0xc0
002768  04030000          DCB      0x04,0x03,0x00,0x00
00276c  02020000          DCB      0x02,0x02,0x00,0x00
002770  03060000          DCB      0x03,0x06,0x00,0x00
002774  01fc0000          DCB      0x01,0xfc,0x00,0x00
002778  00f80000          DCB      0x00,0xf8,0x00,0x00
00277c  00000000          DCB      0x00,0x00,0x00,0x00
                          %        64
0027c0  00000000          DCB      0x00,0x00,0x00,0x00
0027c4  000ff800          DCB      0x00,0x0f,0xf8,0x00
0027c8  003ffe00          DCB      0x00,0x3f,0xfe,0x00
0027cc  00700780          DCB      0x00,0x70,0x07,0x80
0027d0  00c000c0          DCB      0x00,0xc0,0x00,0xc0
0027d4  0101f840          DCB      0x01,0x01,0xf8,0x40
0027d8  0307fc20          DCB      0x03,0x07,0xfc,0x20
0027dc  021e0420          DCB      0x02,0x1e,0x04,0x20
0027e0  02300820          DCB      0x02,0x30,0x08,0x20
0027e4  02203020          DCB      0x02,0x20,0x30,0x20
0027e8  023ffc20          DCB      0x02,0x3f,0xfc,0x20
0027ec  013f0440          DCB      0x01,0x3f,0x04,0x40
0027f0  01800cc0          DCB      0x01,0x80,0x0c,0xc0
0027f4  00e03180          DCB      0x00,0xe0,0x31,0x80
0027f8  001fc200          DCB      0x00,0x1f,0xc2,0x00
0027fc  00000000          DCB      0x00,0x00,0x00,0x00
                          %        64
002840  00000020          DCB      0x00,0x00,0x00,0x20
002844  00000060          DCB      0x00,0x00,0x00,0x60
002848  000003e0          DCB      0x00,0x00,0x03,0xe0
00284c  00003e20          DCB      0x00,0x00,0x3e,0x20
002850  0003e020          DCB      0x00,0x03,0xe0,0x20
002854  003e2000          DCB      0x00,0x3e,0x20,0x00
002858  03e02000          DCB      0x03,0xe0,0x20,0x00
00285c  03802000          DCB      0x03,0x80,0x20,0x00
002860  07fc2000          DCB      0x07,0xfc,0x20,0x00
002864  003fe000          DCB      0x00,0x3f,0xe0,0x00
002868  0003fe20          DCB      0x00,0x03,0xfe,0x20
00286c  00003fe0          DCB      0x00,0x00,0x3f,0xe0
002870  000001e0          DCB      0x00,0x00,0x01,0xe0
002874  00000020          DCB      0x00,0x00,0x00,0x20
002878  00000020          DCB      0x00,0x00,0x00,0x20
00287c  00000000          DCB      0x00,0x00,0x00,0x00
                          %        64
0028c0  00000000          DCB      0x00,0x00,0x00,0x00
0028c4  02000020          DCB      0x02,0x00,0x00,0x20
0028c8  02000020          DCB      0x02,0x00,0x00,0x20
0028cc  03ffffe0          DCB      0x03,0xff,0xff,0xe0
0028d0  03ffffe0          DCB      0x03,0xff,0xff,0xe0
0028d4  02010020          DCB      0x02,0x01,0x00,0x20
0028d8  02010020          DCB      0x02,0x01,0x00,0x20
0028dc  02010020          DCB      0x02,0x01,0x00,0x20
0028e0  02010020          DCB      0x02,0x01,0x00,0x20
0028e4  02010020          DCB      0x02,0x01,0x00,0x20
0028e8  03030020          DCB      0x03,0x03,0x00,0x20
0028ec  01868060          DCB      0x01,0x86,0x80,0x60
0028f0  01fcc0c0          DCB      0x01,0xfc,0xc0,0xc0
0028f4  00f87f80          DCB      0x00,0xf8,0x7f,0x80
0028f8  00001f00          DCB      0x00,0x00,0x1f,0x00
0028fc  00000000          DCB      0x00,0x00,0x00,0x00
                          %        64
002940  00000000          DCB      0x00,0x00,0x00,0x00
002944  0007f800          DCB      0x00,0x07,0xf8,0x00
002948  003fff00          DCB      0x00,0x3f,0xff,0x00
00294c  00700780          DCB      0x00,0x70,0x07,0x80
002950  00c000c0          DCB      0x00,0xc0,0x00,0xc0
002954  01000040          DCB      0x01,0x00,0x00,0x40
002958  03000020          DCB      0x03,0x00,0x00,0x20
00295c  02000020          DCB      0x02,0x00,0x00,0x20
002960  02000020          DCB      0x02,0x00,0x00,0x20
002964  02000020          DCB      0x02,0x00,0x00,0x20
002968  02000020          DCB      0x02,0x00,0x00,0x20
00296c  01000040          DCB      0x01,0x00,0x00,0x40
002970  018000c0          DCB      0x01,0x80,0x00,0xc0
002974  03c00180          DCB      0x03,0xc0,0x01,0x80
002978  00300600          DCB      0x00,0x30,0x06,0x00
00297c  00000000          DCB      0x00,0x00,0x00,0x00
                          %        64
0029c0  00000000          DCB      0x00,0x00,0x00,0x00
0029c4  02000020          DCB      0x02,0x00,0x00,0x20
0029c8  02000020          DCB      0x02,0x00,0x00,0x20
0029cc  03ffffe0          DCB      0x03,0xff,0xff,0xe0
0029d0  03ffffe0          DCB      0x03,0xff,0xff,0xe0
0029d4  02000020          DCB      0x02,0x00,0x00,0x20
0029d8  02000020          DCB      0x02,0x00,0x00,0x20
0029dc  02000020          DCB      0x02,0x00,0x00,0x20
0029e0  02000020          DCB      0x02,0x00,0x00,0x20
0029e4  03000060          DCB      0x03,0x00,0x00,0x60
0029e8  01000040          DCB      0x01,0x00,0x00,0x40
0029ec  018000c0          DCB      0x01,0x80,0x00,0xc0
0029f0  00f00780          DCB      0x00,0xf0,0x07,0x80
0029f4  007ffe00          DCB      0x00,0x7f,0xfe,0x00
0029f8  000ff800          DCB      0x00,0x0f,0xf8,0x00
0029fc  00000000          DCB      0x00,0x00,0x00,0x00
                          %        64
002a40  00000000          DCB      0x00,0x00,0x00,0x00
002a44  02000020          DCB      0x02,0x00,0x00,0x20
002a48  02000020          DCB      0x02,0x00,0x00,0x20
002a4c  03ffffe0          DCB      0x03,0xff,0xff,0xe0
002a50  03ffffe0          DCB      0x03,0xff,0xff,0xe0
002a54  02010020          DCB      0x02,0x01,0x00,0x20
002a58  02010020          DCB      0x02,0x01,0x00,0x20
002a5c  02010020          DCB      0x02,0x01,0x00,0x20
002a60  02010020          DCB      0x02,0x01,0x00,0x20
002a64  02010020          DCB      0x02,0x01,0x00,0x20
002a68  02038020          DCB      0x02,0x03,0x80,0x20
002a6c  020fe020          DCB      0x02,0x0f,0xe0,0x20
002a70  03000060          DCB      0x03,0x00,0x00,0x60
002a74  03c000e0          DCB      0x03,0xc0,0x00,0xe0
002a78  00600300          DCB      0x00,0x60,0x03,0x00
002a7c  00000000          DCB      0x00,0x00,0x00,0x00
                          %        64
002ac0  00000000          DCB      0x00,0x00,0x00,0x00
002ac4  02000020          DCB      0x02,0x00,0x00,0x20
002ac8  02000020          DCB      0x02,0x00,0x00,0x20
002acc  03ffffe0          DCB      0x03,0xff,0xff,0xe0
002ad0  03ffffe0          DCB      0x03,0xff,0xff,0xe0
002ad4  02010020          DCB      0x02,0x01,0x00,0x20
002ad8  02010020          DCB      0x02,0x01,0x00,0x20
002adc  02010000          DCB      0x02,0x01,0x00,0x00
002ae0  02010000          DCB      0x02,0x01,0x00,0x00
002ae4  02010000          DCB      0x02,0x01,0x00,0x00
002ae8  02010000          DCB      0x02,0x01,0x00,0x00
002aec  02038000          DCB      0x02,0x03,0x80,0x00
002af0  030fe000          DCB      0x03,0x0f,0xe0,0x00
002af4  03000000          DCB      0x03,0x00,0x00,0x00
002af8  03c00000          DCB      0x03,0xc0,0x00,0x00
002afc  00600000          DCB      0x00,0x60,0x00,0x00
                          %        64
002b40  00000000          DCB      0x00,0x00,0x00,0x00
002b44  0007f800          DCB      0x00,0x07,0xf8,0x00
002b48  003ffe00          DCB      0x00,0x3f,0xfe,0x00
002b4c  00700780          DCB      0x00,0x70,0x07,0x80
002b50  01c001c0          DCB      0x01,0xc0,0x01,0xc0
002b54  01000040          DCB      0x01,0x00,0x00,0x40
002b58  03000020          DCB      0x03,0x00,0x00,0x20
002b5c  02000020          DCB      0x02,0x00,0x00,0x20
002b60  02000020          DCB      0x02,0x00,0x00,0x20
002b64  02000020          DCB      0x02,0x00,0x00,0x20
002b68  01002020          DCB      0x01,0x00,0x20,0x20
002b6c  01002040          DCB      0x01,0x00,0x20,0x40
002b70  03c03f80          DCB      0x03,0xc0,0x3f,0x80
002b74  00303f80          DCB      0x00,0x30,0x3f,0x80
002b78  00002000          DCB      0x00,0x00,0x20,0x00
002b7c  00002000          DCB      0x00,0x00,0x20,0x00
                          %        64
002bc0  02000020          DCB      0x02,0x00,0x00,0x20
002bc4  02000020          DCB      0x02,0x00,0x00,0x20
002bc8  03ffffe0          DCB      0x03,0xff,0xff,0xe0
002bcc  03ffffe0          DCB      0x03,0xff,0xff,0xe0
002bd0  02008020          DCB      0x02,0x00,0x80,0x20
002bd4  02008020          DCB      0x02,0x00,0x80,0x20
002bd8  00008000          DCB      0x00,0x00,0x80,0x00
002bdc  00008000          DCB      0x00,0x00,0x80,0x00
002be0  00008000          DCB      0x00,0x00,0x80,0x00
002be4  02008020          DCB      0x02,0x00,0x80,0x20
002be8  02008020          DCB      0x02,0x00,0x80,0x20
002bec  03ffffe0          DCB      0x03,0xff,0xff,0xe0
002bf0  03ffffe0          DCB      0x03,0xff,0xff,0xe0
002bf4  02000020          DCB      0x02,0x00,0x00,0x20
002bf8  02000020          DCB      0x02,0x00,0x00,0x20
002bfc  00000000          DCB      0x00,0x00,0x00,0x00
                          %        64
002c40  00000000          DCB      0x00,0x00,0x00,0x00
002c44  00000000          DCB      0x00,0x00,0x00,0x00
002c48  00000000          DCB      0x00,0x00,0x00,0x00
002c4c  02000020          DCB      0x02,0x00,0x00,0x20
002c50  02000020          DCB      0x02,0x00,0x00,0x20
002c54  02000020          DCB      0x02,0x00,0x00,0x20
002c58  02000020          DCB      0x02,0x00,0x00,0x20
002c5c  03ffffe0          DCB      0x03,0xff,0xff,0xe0
002c60  03ffffe0          DCB      0x03,0xff,0xff,0xe0
002c64  02000020          DCB      0x02,0x00,0x00,0x20
002c68  02000020          DCB      0x02,0x00,0x00,0x20
002c6c  02000020          DCB      0x02,0x00,0x00,0x20
002c70  02000020          DCB      0x02,0x00,0x00,0x20
002c74  00000000          DCB      0x00,0x00,0x00,0x00
002c78  00000000          DCB      0x00,0x00,0x00,0x00
002c7c  00000000          DCB      0x00,0x00,0x00,0x00
                          %        64
002cc0  00000000          DCB      0x00,0x00,0x00,0x00
002cc4  0000000e          DCB      0x00,0x00,0x00,0x0e
002cc8  0000000f          DCB      0x00,0x00,0x00,0x0f
002ccc  0000000f          DCB      0x00,0x00,0x00,0x0f
002cd0  00000001          DCB      0x00,0x00,0x00,0x01
002cd4  02000001          DCB      0x02,0x00,0x00,0x01
002cd8  02000001          DCB      0x02,0x00,0x00,0x01
002cdc  02000003          DCB      0x02,0x00,0x00,0x03
002ce0  02000006          DCB      0x02,0x00,0x00,0x06
002ce4  03fffffc          DCB      0x03,0xff,0xff,0xfc
002ce8  03fffff8          DCB      0x03,0xff,0xff,0xf8
002cec  02000000          DCB      0x02,0x00,0x00,0x00
002cf0  02000000          DCB      0x02,0x00,0x00,0x00
002cf4  02000000          DCB      0x02,0x00,0x00,0x00
002cf8  02000000          DCB      0x02,0x00,0x00,0x00
002cfc  00000000          DCB      0x00,0x00,0x00,0x00
                          %        64
002d40  00000000          DCB      0x00,0x00,0x00,0x00
002d44  02000020          DCB      0x02,0x00,0x00,0x20
002d48  02000020          DCB      0x02,0x00,0x00,0x20
002d4c  03ffffe0          DCB      0x03,0xff,0xff,0xe0
002d50  03ffffe0          DCB      0x03,0xff,0xff,0xe0
002d54  0200c020          DCB      0x02,0x00,0xc0,0x20
002d58  02010020          DCB      0x02,0x01,0x00,0x20
002d5c  00078000          DCB      0x00,0x07,0x80,0x00
002d60  000fe000          DCB      0x00,0x0f,0xe0,0x00
002d64  0030f800          DCB      0x00,0x30,0xf8,0x00
002d68  02603e20          DCB      0x02,0x60,0x3e,0x20
002d6c  03800f20          DCB      0x03,0x80,0x0f,0x20
002d70  030003e0          DCB      0x03,0x00,0x03,0xe0
002d74  020000e0          DCB      0x02,0x00,0x00,0xe0
002d78  02000020          DCB      0x02,0x00,0x00,0x20
002d7c  00000020          DCB      0x00,0x00,0x00,0x20
                          %        64
002dc0  00000000          DCB      0x00,0x00,0x00,0x00
002dc4  02000020          DCB      0x02,0x00,0x00,0x20
002dc8  02000020          DCB      0x02,0x00,0x00,0x20
002dcc  03ffffe0          DCB      0x03,0xff,0xff,0xe0
002dd0  03ffffe0          DCB      0x03,0xff,0xff,0xe0
002dd4  02000020          DCB      0x02,0x00,0x00,0x20
002dd8  02000020          DCB      0x02,0x00,0x00,0x20
002ddc  00000020          DCB      0x00,0x00,0x00,0x20
002de0  00000020          DCB      0x00,0x00,0x00,0x20
002de4  00000020          DCB      0x00,0x00,0x00,0x20
002de8  00000020          DCB      0x00,0x00,0x00,0x20
002dec  00000020          DCB      0x00,0x00,0x00,0x20
002df0  00000060          DCB      0x00,0x00,0x00,0x60
002df4  000000e0          DCB      0x00,0x00,0x00,0xe0
002df8  00000300          DCB      0x00,0x00,0x03,0x00
002dfc  00000000          DCB      0x00,0x00,0x00,0x00
                          %        64
002e40  02000020          DCB      0x02,0x00,0x00,0x20
002e44  02000020          DCB      0x02,0x00,0x00,0x20
002e48  03ffffe0          DCB      0x03,0xff,0xff,0xe0
002e4c  03e00020          DCB      0x03,0xe0,0x00,0x20
002e50  03ff0020          DCB      0x03,0xff,0x00,0x20
002e54  001ff000          DCB      0x00,0x1f,0xf0,0x00
002e58  0001ff80          DCB      0x00,0x01,0xff,0x80
002e5c  00000fe0          DCB      0x00,0x00,0x0f,0xe0
002e60  00001e00          DCB      0x00,0x00,0x1e,0x00
002e64  0003e000          DCB      0x00,0x03,0xe0,0x00
002e68  003e0020          DCB      0x00,0x3e,0x00,0x20
002e6c  03e00020          DCB      0x03,0xe0,0x00,0x20
002e70  03ffffe0          DCB      0x03,0xff,0xff,0xe0
002e74  03ffffe0          DCB      0x03,0xff,0xff,0xe0
002e78  02000020          DCB      0x02,0x00,0x00,0x20
002e7c  02000020          DCB      0x02,0x00,0x00,0x20
                          %        64
002ec0  02000020          DCB      0x02,0x00,0x00,0x20
002ec4  02000020          DCB      0x02,0x00,0x00,0x20
002ec8  03ffffe0          DCB      0x03,0xff,0xff,0xe0
002ecc  03800020          DCB      0x03,0x80,0x00,0x20
002ed0  03f00020          DCB      0x03,0xf0,0x00,0x20
002ed4  00fc0000          DCB      0x00,0xfc,0x00,0x00
002ed8  001f0000          DCB      0x00,0x1f,0x00,0x00
002edc  0007c000          DCB      0x00,0x07,0xc0,0x00
002ee0  0001f000          DCB      0x00,0x01,0xf0,0x00
002ee4  00007c00          DCB      0x00,0x00,0x7c,0x00
002ee8  02001f80          DCB      0x02,0x00,0x1f,0x80
002eec  020007e0          DCB      0x02,0x00,0x07,0xe0
002ef0  03ffffe0          DCB      0x03,0xff,0xff,0xe0
002ef4  02000000          DCB      0x02,0x00,0x00,0x00
002ef8  02000000          DCB      0x02,0x00,0x00,0x00
002efc  00000000          DCB      0x00,0x00,0x00,0x00
                          %        64
002f40  00000000          DCB      0x00,0x00,0x00,0x00
002f44  000ff800          DCB      0x00,0x0f,0xf8,0x00
002f48  003ffe00          DCB      0x00,0x3f,0xfe,0x00
002f4c  00f00780          DCB      0x00,0xf0,0x07,0x80
002f50  018000c0          DCB      0x01,0x80,0x00,0xc0
002f54  01000040          DCB      0x01,0x00,0x00,0x40
002f58  02000020          DCB      0x02,0x00,0x00,0x20
002f5c  02000020          DCB      0x02,0x00,0x00,0x20
002f60  02000020          DCB      0x02,0x00,0x00,0x20
002f64  02000020          DCB      0x02,0x00,0x00,0x20
002f68  01000040          DCB      0x01,0x00,0x00,0x40
002f6c  018000c0          DCB      0x01,0x80,0x00,0xc0
002f70  00f00380          DCB      0x00,0xf0,0x03,0x80
002f74  003ffe00          DCB      0x00,0x3f,0xfe,0x00
002f78  000ff800          DCB      0x00,0x0f,0xf8,0x00
002f7c  00000000          DCB      0x00,0x00,0x00,0x00
                          %        64
002fc0  00000000          DCB      0x00,0x00,0x00,0x00
002fc4  02000020          DCB      0x02,0x00,0x00,0x20
002fc8  02000020          DCB      0x02,0x00,0x00,0x20
002fcc  03ffffe0          DCB      0x03,0xff,0xff,0xe0
002fd0  03ffffe0          DCB      0x03,0xff,0xff,0xe0
002fd4  02008020          DCB      0x02,0x00,0x80,0x20
002fd8  02008020          DCB      0x02,0x00,0x80,0x20
002fdc  02008000          DCB      0x02,0x00,0x80,0x00
002fe0  02008000          DCB      0x02,0x00,0x80,0x00
002fe4  02008000          DCB      0x02,0x00,0x80,0x00
002fe8  02008000          DCB      0x02,0x00,0x80,0x00
002fec  03018000          DCB      0x03,0x01,0x80,0x00
002ff0  01830000          DCB      0x01,0x83,0x00,0x00
002ff4  00fe0000          DCB      0x00,0xfe,0x00,0x00
002ff8  007c0000          DCB      0x00,0x7c,0x00,0x00
002ffc  00000000          DCB      0x00,0x00,0x00,0x00
                          %        64
003040  00000000          DCB      0x00,0x00,0x00,0x00
003044  000ff800          DCB      0x00,0x0f,0xf8,0x00
003048  007fff00          DCB      0x00,0x7f,0xff,0x00
00304c  00f00380          DCB      0x00,0xf0,0x03,0x80
003050  018001c0          DCB      0x01,0x80,0x01,0xc0
003054  01000640          DCB      0x01,0x00,0x06,0x40
003058  02000420          DCB      0x02,0x00,0x04,0x20
00305c  02000420          DCB      0x02,0x00,0x04,0x20
003060  02000620          DCB      0x02,0x00,0x06,0x20
003064  020003e0          DCB      0x02,0x00,0x03,0xe0
003068  010000f8          DCB      0x01,0x00,0x00,0xf8
00306c  0180005c          DCB      0x01,0x80,0x00,0x5c
003070  00e0038c          DCB      0x00,0xe0,0x03,0x8c
003074  003fff0c          DCB      0x00,0x3f,0xff,0x0c
003078  000ffc18          DCB      0x00,0x0f,0xfc,0x18
00307c  00000000          DCB      0x00,0x00,0x00,0x00
                          %        64
0030c0  00000000          DCB      0x00,0x00,0x00,0x00
0030c4  02000020          DCB      0x02,0x00,0x00,0x20
0030c8  02000020          DCB      0x02,0x00,0x00,0x20
0030cc  03ffffe0          DCB      0x03,0xff,0xff,0xe0
0030d0  03ffffe0          DCB      0x03,0xff,0xff,0xe0
0030d4  02010020          DCB      0x02,0x01,0x00,0x20
0030d8  02010020          DCB      0x02,0x01,0x00,0x20
0030dc  02018000          DCB      0x02,0x01,0x80,0x00
0030e0  0201e000          DCB      0x02,0x01,0xe0,0x00
0030e4  0201fc00          DCB      0x02,0x01,0xfc,0x00
0030e8  03033f80          DCB      0x03,0x03,0x3f,0x80
0030ec  018607e0          DCB      0x01,0x86,0x07,0xe0
0030f0  01fc00e0          DCB      0x01,0xfc,0x00,0xe0
0030f4  00f80020          DCB      0x00,0xf8,0x00,0x20
0030f8  00000020          DCB      0x00,0x00,0x00,0x20
0030fc  00000000          DCB      0x00,0x00,0x00,0x00
                          %        64
003140  00000000          DCB      0x00,0x00,0x00,0x00
003144  00000000          DCB      0x00,0x00,0x00,0x00
003148  00780600          DCB      0x00,0x78,0x06,0x00
00314c  00fe01e0          DCB      0x00,0xfe,0x01,0xe0
003150  018600c0          DCB      0x01,0x86,0x00,0xc0
003154  03030040          DCB      0x03,0x03,0x00,0x40
003158  02030020          DCB      0x02,0x03,0x00,0x20
00315c  02018020          DCB      0x02,0x01,0x80,0x20
003160  02018020          DCB      0x02,0x01,0x80,0x20
003164  0201c020          DCB      0x02,0x01,0xc0,0x20
003168  0200c020          DCB      0x02,0x00,0xc0,0x20
00316c  0100e060          DCB      0x01,0x00,0xe0,0x60
003170  018070c0          DCB      0x01,0x80,0x70,0xc0
003174  03e03f80          DCB      0x03,0xe0,0x3f,0x80
003178  00001f00          DCB      0x00,0x00,0x1f,0x00
00317c  00000000          DCB      0x00,0x00,0x00,0x00
                          %        64
0031c0  00000000          DCB      0x00,0x00,0x00,0x00
0031c4  00600000          DCB      0x00,0x60,0x00,0x00
0031c8  03800000          DCB      0x03,0x80,0x00,0x00
0031cc  03000000          DCB      0x03,0x00,0x00,0x00
0031d0  02000000          DCB      0x02,0x00,0x00,0x00
0031d4  02000020          DCB      0x02,0x00,0x00,0x20
0031d8  02000020          DCB      0x02,0x00,0x00,0x20
0031dc  03ffffe0          DCB      0x03,0xff,0xff,0xe0
0031e0  03ffffe0          DCB      0x03,0xff,0xff,0xe0
0031e4  02000020          DCB      0x02,0x00,0x00,0x20
0031e8  02000020          DCB      0x02,0x00,0x00,0x20
0031ec  02000000          DCB      0x02,0x00,0x00,0x00
0031f0  02000000          DCB      0x02,0x00,0x00,0x00
0031f4  03800000          DCB      0x03,0x80,0x00,0x00
0031f8  00e00000          DCB      0x00,0xe0,0x00,0x00
0031fc  00000000          DCB      0x00,0x00,0x00,0x00
                          %        64
003240  02000000          DCB      0x02,0x00,0x00,0x00
003244  02000000          DCB      0x02,0x00,0x00,0x00
003248  03ffff00          DCB      0x03,0xff,0xff,0x00
00324c  03ffffc0          DCB      0x03,0xff,0xff,0xc0
003250  02000040          DCB      0x02,0x00,0x00,0x40
003254  02000060          DCB      0x02,0x00,0x00,0x60
003258  00000020          DCB      0x00,0x00,0x00,0x20
00325c  00000020          DCB      0x00,0x00,0x00,0x20
003260  00000020          DCB      0x00,0x00,0x00,0x20
003264  00000020          DCB      0x00,0x00,0x00,0x20
003268  02000040          DCB      0x02,0x00,0x00,0x40
00326c  02000080          DCB      0x02,0x00,0x00,0x80
003270  03ffff00          DCB      0x03,0xff,0xff,0x00
003274  02000000          DCB      0x02,0x00,0x00,0x00
003278  02000000          DCB      0x02,0x00,0x00,0x00
00327c  00000000          DCB      0x00,0x00,0x00,0x00
                          %        64
0032c0  00000000          DCB      0x00,0x00,0x00,0x00
0032c4  02000000          DCB      0x02,0x00,0x00,0x00
0032c8  02000000          DCB      0x02,0x00,0x00,0x00
0032cc  03c00000          DCB      0x03,0xc0,0x00,0x00
0032d0  03fc0000          DCB      0x03,0xfc,0x00,0x00
0032d4  023fc000          DCB      0x02,0x3f,0xc0,0x00
0032d8  0003f800          DCB      0x00,0x03,0xf8,0x00
0032dc  00007f80          DCB      0x00,0x00,0x7f,0x80
0032e0  000007e0          DCB      0x00,0x00,0x07,0xe0
0032e4  00000780          DCB      0x00,0x00,0x07,0x80
0032e8  00007800          DCB      0x00,0x00,0x78,0x00
0032ec  0203c000          DCB      0x02,0x03,0xc0,0x00
0032f0  023c0000          DCB      0x02,0x3c,0x00,0x00
0032f4  03c00000          DCB      0x03,0xc0,0x00,0x00
0032f8  02000000          DCB      0x02,0x00,0x00,0x00
0032fc  02000000          DCB      0x02,0x00,0x00,0x00
                          %        64
003340  02000000          DCB      0x02,0x00,0x00,0x00
003344  03c00000          DCB      0x03,0xc0,0x00,0x00
003348  03ff8000          DCB      0x03,0xff,0x80,0x00
00334c  023ffe00          DCB      0x02,0x3f,0xfe,0x00
003350  02007fe0          DCB      0x02,0x00,0x7f,0xe0
003354  00000f00          DCB      0x00,0x00,0x0f,0x00
003358  0200f000          DCB      0x02,0x00,0xf0,0x00
00335c  03ef0000          DCB      0x03,0xef,0x00,0x00
003360  03ff8000          DCB      0x03,0xff,0x80,0x00
003364  020ffe00          DCB      0x02,0x0f,0xfe,0x00
003368  00003fe0          DCB      0x00,0x00,0x3f,0xe0
00336c  00001f00          DCB      0x00,0x00,0x1f,0x00
003370  0207e000          DCB      0x02,0x07,0xe0,0x00
003374  03f80000          DCB      0x03,0xf8,0x00,0x00
003378  03000000          DCB      0x03,0x00,0x00,0x00
00337c  02000000          DCB      0x02,0x00,0x00,0x00
                          %        64
0033c0  00000000          DCB      0x00,0x00,0x00,0x00
0033c4  02000020          DCB      0x02,0x00,0x00,0x20
0033c8  02000020          DCB      0x02,0x00,0x00,0x20
0033cc  038000e0          DCB      0x03,0x80,0x00,0xe0
0033d0  03f00320          DCB      0x03,0xf0,0x03,0x20
0033d4  02fc0c20          DCB      0x02,0xfc,0x0c,0x20
0033d8  021f3000          DCB      0x02,0x1f,0x30,0x00
0033dc  0007c000          DCB      0x00,0x07,0xc0,0x00
0033e0  0007f000          DCB      0x00,0x07,0xf0,0x00
0033e4  02187c00          DCB      0x02,0x18,0x7c,0x00
0033e8  02601f20          DCB      0x02,0x60,0x1f,0x20
0033ec  038003e0          DCB      0x03,0x80,0x03,0xe0
0033f0  020000e0          DCB      0x02,0x00,0x00,0xe0
0033f4  02000020          DCB      0x02,0x00,0x00,0x20
0033f8  00000020          DCB      0x00,0x00,0x00,0x20
0033fc  00000000          DCB      0x00,0x00,0x00,0x00
                          %        64
003440  00000000          DCB      0x00,0x00,0x00,0x00
003444  02000000          DCB      0x02,0x00,0x00,0x00
003448  03000000          DCB      0x03,0x00,0x00,0x00
00344c  03c00000          DCB      0x03,0xc0,0x00,0x00
003450  03f80000          DCB      0x03,0xf8,0x00,0x00
003454  023e0020          DCB      0x02,0x3e,0x00,0x20
003458  020fc020          DCB      0x02,0x0f,0xc0,0x20
00345c  0001ffe0          DCB      0x00,0x01,0xff,0xe0
003460  00007fe0          DCB      0x00,0x00,0x7f,0xe0
003464  00038020          DCB      0x00,0x03,0x80,0x20
003468  021c0020          DCB      0x02,0x1c,0x00,0x20
00346c  02700000          DCB      0x02,0x70,0x00,0x00
003470  03800000          DCB      0x03,0x80,0x00,0x00
003474  02000000          DCB      0x02,0x00,0x00,0x00
003478  02000000          DCB      0x02,0x00,0x00,0x00
00347c  00000000          DCB      0x00,0x00,0x00,0x00
                          %        64
0034c0  00000000          DCB      0x00,0x00,0x00,0x00
0034c4  00000020          DCB      0x00,0x00,0x00,0x20
0034c8  006000e0          DCB      0x00,0x60,0x00,0xe0
0034cc  038003e0          DCB      0x03,0x80,0x03,0xe0
0034d0  03000fa0          DCB      0x03,0x00,0x0f,0xa0
0034d4  02003e20          DCB      0x02,0x00,0x3e,0x20
0034d8  0200f820          DCB      0x02,0x00,0xf8,0x20
0034dc  0203e020          DCB      0x02,0x03,0xe0,0x20
0034e0  020f8020          DCB      0x02,0x0f,0x80,0x20
0034e4  023e0020          DCB      0x02,0x3e,0x00,0x20
0034e8  02780020          DCB      0x02,0x78,0x00,0x20
0034ec  03e00060          DCB      0x03,0xe0,0x00,0x60
0034f0  038000e0          DCB      0x03,0x80,0x00,0xe0
0034f4  02000300          DCB      0x02,0x00,0x03,0x00
0034f8  00000000          DCB      0x00,0x00,0x00,0x00
0034fc  00000000          DCB      0x00,0x00,0x00,0x00
                          %        64
003540  00000000          DCB      0x00,0x00,0x00,0x00
003544  00000000          DCB      0x00,0x00,0x00,0x00
003548  00000000          DCB      0x00,0x00,0x00,0x00
00354c  00000000          DCB      0x00,0x00,0x00,0x00
003550  00000000          DCB      0x00,0x00,0x00,0x00
003554  00000000          DCB      0x00,0x00,0x00,0x00
003558  1ffffffc          DCB      0x1f,0xff,0xff,0xfc
00355c  10000004          DCB      0x10,0x00,0x00,0x04
003560  10000004          DCB      0x10,0x00,0x00,0x04
003564  10000004          DCB      0x10,0x00,0x00,0x04
003568  10000004          DCB      0x10,0x00,0x00,0x04
00356c  10000004          DCB      0x10,0x00,0x00,0x04
003570  10000004          DCB      0x10,0x00,0x00,0x04
003574  10000004          DCB      0x10,0x00,0x00,0x04
003578  00000000          DCB      0x00,0x00,0x00,0x00
00357c  00000000          DCB      0x00,0x00,0x00,0x00
                          %        64
0035c0  00000000          DCB      0x00,0x00,0x00,0x00
0035c4  00000000          DCB      0x00,0x00,0x00,0x00
0035c8  00000000          DCB      0x00,0x00,0x00,0x00
0035cc  07000000          DCB      0x07,0x00,0x00,0x00
0035d0  03c00000          DCB      0x03,0xc0,0x00,0x00
0035d4  00780000          DCB      0x00,0x78,0x00,0x00
0035d8  001e0000          DCB      0x00,0x1e,0x00,0x00
0035dc  0003c000          DCB      0x00,0x03,0xc0,0x00
0035e0  0000f000          DCB      0x00,0x00,0xf0,0x00
0035e4  00001e00          DCB      0x00,0x00,0x1e,0x00
0035e8  00000780          DCB      0x00,0x00,0x07,0x80
0035ec  000000f0          DCB      0x00,0x00,0x00,0xf0
0035f0  0000003c          DCB      0x00,0x00,0x00,0x3c
0035f4  00000006          DCB      0x00,0x00,0x00,0x06
0035f8  00000000          DCB      0x00,0x00,0x00,0x00
0035fc  00000000          DCB      0x00,0x00,0x00,0x00
                          %        64
003640  00000000          DCB      0x00,0x00,0x00,0x00
003644  00000000          DCB      0x00,0x00,0x00,0x00
003648  10000004          DCB      0x10,0x00,0x00,0x04
00364c  10000004          DCB      0x10,0x00,0x00,0x04
003650  10000004          DCB      0x10,0x00,0x00,0x04
003654  10000004          DCB      0x10,0x00,0x00,0x04
003658  10000004          DCB      0x10,0x00,0x00,0x04
00365c  10000004          DCB      0x10,0x00,0x00,0x04
003660  10000004          DCB      0x10,0x00,0x00,0x04
003664  1ffffffc          DCB      0x1f,0xff,0xff,0xfc
003668  00000000          DCB      0x00,0x00,0x00,0x00
00366c  00000000          DCB      0x00,0x00,0x00,0x00
003670  00000000          DCB      0x00,0x00,0x00,0x00
003674  00000000          DCB      0x00,0x00,0x00,0x00
003678  00000000          DCB      0x00,0x00,0x00,0x00
00367c  00000000          DCB      0x00,0x00,0x00,0x00
                          %        64
0036c0  00000000          DCB      0x00,0x00,0x00,0x00
0036c4  00000000          DCB      0x00,0x00,0x00,0x00
0036c8  00000000          DCB      0x00,0x00,0x00,0x00
0036cc  00000000          DCB      0x00,0x00,0x00,0x00
0036d0  02000000          DCB      0x02,0x00,0x00,0x00
0036d4  04000000          DCB      0x04,0x00,0x00,0x00
0036d8  08000000          DCB      0x08,0x00,0x00,0x00
0036dc  18000000          DCB      0x18,0x00,0x00,0x00
0036e0  10000000          DCB      0x10,0x00,0x00,0x00
0036e4  18000000          DCB      0x18,0x00,0x00,0x00
0036e8  18000000          DCB      0x18,0x00,0x00,0x00
0036ec  04000000          DCB      0x04,0x00,0x00,0x00
0036f0  02000000          DCB      0x02,0x00,0x00,0x00
0036f4  00000000          DCB      0x00,0x00,0x00,0x00
0036f8  00000000          DCB      0x00,0x00,0x00,0x00
0036fc  00000000          DCB      0x00,0x00,0x00,0x00
                          %        64
003740  00000001          DCB      0x00,0x00,0x00,0x01
003744  00000001          DCB      0x00,0x00,0x00,0x01
003748  00000001          DCB      0x00,0x00,0x00,0x01
00374c  00000001          DCB      0x00,0x00,0x00,0x01
003750  00000001          DCB      0x00,0x00,0x00,0x01
003754  00000001          DCB      0x00,0x00,0x00,0x01
003758  00000001          DCB      0x00,0x00,0x00,0x01
00375c  00000001          DCB      0x00,0x00,0x00,0x01
003760  00000001          DCB      0x00,0x00,0x00,0x01
003764  00000001          DCB      0x00,0x00,0x00,0x01
003768  00000001          DCB      0x00,0x00,0x00,0x01
00376c  00000001          DCB      0x00,0x00,0x00,0x01
003770  00000001          DCB      0x00,0x00,0x00,0x01
003774  00000001          DCB      0x00,0x00,0x00,0x01
003778  00000001          DCB      0x00,0x00,0x00,0x01
00377c  00000001          DCB      0x00,0x00,0x00,0x01
                          %        64
0037c0  00000000          DCB      0x00,0x00,0x00,0x00
0037c4  00000000          DCB      0x00,0x00,0x00,0x00
0037c8  00000000          DCB      0x00,0x00,0x00,0x00
0037cc  10000000          DCB      0x10,0x00,0x00,0x00
0037d0  10000000          DCB      0x10,0x00,0x00,0x00
0037d4  10000000          DCB      0x10,0x00,0x00,0x00
0037d8  18000000          DCB      0x18,0x00,0x00,0x00
0037dc  08000000          DCB      0x08,0x00,0x00,0x00
0037e0  04000000          DCB      0x04,0x00,0x00,0x00
0037e4  00000000          DCB      0x00,0x00,0x00,0x00
0037e8  00000000          DCB      0x00,0x00,0x00,0x00
0037ec  00000000          DCB      0x00,0x00,0x00,0x00
0037f0  00000000          DCB      0x00,0x00,0x00,0x00
0037f4  00000000          DCB      0x00,0x00,0x00,0x00
0037f8  00000000          DCB      0x00,0x00,0x00,0x00
0037fc  00000000          DCB      0x00,0x00,0x00,0x00
                          %        64
003840  00000000          DCB      0x00,0x00,0x00,0x00
003844  00000380          DCB      0x00,0x00,0x03,0x80
003848  00018fc0          DCB      0x00,0x01,0x8f,0xc0
00384c  00038c60          DCB      0x00,0x03,0x8c,0x60
003850  00061820          DCB      0x00,0x06,0x18,0x20
003854  00041020          DCB      0x00,0x04,0x10,0x20
003858  00041020          DCB      0x00,0x04,0x10,0x20
00385c  00042020          DCB      0x00,0x04,0x20,0x20
003860  00042040          DCB      0x00,0x04,0x20,0x40
003864  00062040          DCB      0x00,0x06,0x20,0x40
003868  0003ffc0          DCB      0x00,0x03,0xff,0xc0
00386c  0001ffe0          DCB      0x00,0x01,0xff,0xe0
003870  00000020          DCB      0x00,0x00,0x00,0x20
003874  00000020          DCB      0x00,0x00,0x00,0x20
003878  000000c0          DCB      0x00,0x00,0x00,0xc0
00387c  00000000          DCB      0x00,0x00,0x00,0x00
                          %        64
0038c0  00000000          DCB      0x00,0x00,0x00,0x00
0038c4  02000000          DCB      0x02,0x00,0x00,0x00
0038c8  02000000          DCB      0x02,0x00,0x00,0x00
0038cc  03ffffe0          DCB      0x03,0xff,0xff,0xe0
0038d0  07ffffc0          DCB      0x07,0xff,0xff,0xc0
0038d4  000180c0          DCB      0x00,0x01,0x80,0xc0
0038d8  00020060          DCB      0x00,0x02,0x00,0x60
0038dc  00020020          DCB      0x00,0x02,0x00,0x20
0038e0  00040020          DCB      0x00,0x04,0x00,0x20
0038e4  00040020          DCB      0x00,0x04,0x00,0x20
0038e8  00040020          DCB      0x00,0x04,0x00,0x20
0038ec  00060040          DCB      0x00,0x06,0x00,0x40
0038f0  000300c0          DCB      0x00,0x03,0x00,0xc0
0038f4  0001ff80          DCB      0x00,0x01,0xff,0x80
0038f8  0000fe00          DCB      0x00,0x00,0xfe,0x00
0038fc  00000000          DCB      0x00,0x00,0x00,0x00
                          %        64
003940  00000000          DCB      0x00,0x00,0x00,0x00
003944  00000000          DCB      0x00,0x00,0x00,0x00
003948  00007e00          DCB      0x00,0x00,0x7e,0x00
00394c  0001ff80          DCB      0x00,0x01,0xff,0x80
003950  000381c0          DCB      0x00,0x03,0x81,0xc0
003954  00020040          DCB      0x00,0x02,0x00,0x40
003958  00060020          DCB      0x00,0x06,0x00,0x20
00395c  00040020          DCB      0x00,0x04,0x00,0x20
003960  00040020          DCB      0x00,0x04,0x00,0x20
003964  00040020          DCB      0x00,0x04,0x00,0x20
003968  00060020          DCB      0x00,0x06,0x00,0x20
00396c  0003c040          DCB      0x00,0x03,0xc0,0x40
003970  0001c080          DCB      0x00,0x01,0xc0,0x80
003974  00000300          DCB      0x00,0x00,0x03,0x00
003978  00000000          DCB      0x00,0x00,0x00,0x00
00397c  00000000          DCB      0x00,0x00,0x00,0x00
                          %        64
0039c0  00000000          DCB      0x00,0x00,0x00,0x00
0039c4  00000000          DCB      0x00,0x00,0x00,0x00
0039c8  00007e00          DCB      0x00,0x00,0x7e,0x00
0039cc  0001ff80          DCB      0x00,0x01,0xff,0x80
0039d0  000380c0          DCB      0x00,0x03,0x80,0xc0
0039d4  00060060          DCB      0x00,0x06,0x00,0x60
0039d8  00040020          DCB      0x00,0x04,0x00,0x20
0039dc  00040020          DCB      0x00,0x04,0x00,0x20
0039e0  00040020          DCB      0x00,0x04,0x00,0x20
0039e4  02040040          DCB      0x02,0x04,0x00,0x40
0039e8  02020080          DCB      0x02,0x02,0x00,0x80
0039ec  03ffffe0          DCB      0x03,0xff,0xff,0xe0
0039f0  07ffffc0          DCB      0x07,0xff,0xff,0xc0
0039f4  00000040          DCB      0x00,0x00,0x00,0x40
0039f8  00000040          DCB      0x00,0x00,0x00,0x40
0039fc  00000000          DCB      0x00,0x00,0x00,0x00
                          %        64
003a40  00000000          DCB      0x00,0x00,0x00,0x00
003a44  00000000          DCB      0x00,0x00,0x00,0x00
003a48  00007e00          DCB      0x00,0x00,0x7e,0x00
003a4c  0001ff80          DCB      0x00,0x01,0xff,0x80
003a50  000311c0          DCB      0x00,0x03,0x11,0xc0
003a54  00021040          DCB      0x00,0x02,0x10,0x40
003a58  00041060          DCB      0x00,0x04,0x10,0x60
003a5c  00041020          DCB      0x00,0x04,0x10,0x20
003a60  00041020          DCB      0x00,0x04,0x10,0x20
003a64  00041020          DCB      0x00,0x04,0x10,0x20
003a68  00061020          DCB      0x00,0x06,0x10,0x20
003a6c  00031040          DCB      0x00,0x03,0x10,0x40
003a70  0001f0c0          DCB      0x00,0x01,0xf0,0xc0
003a74  00007100          DCB      0x00,0x00,0x71,0x00
003a78  00000000          DCB      0x00,0x00,0x00,0x00
003a7c  00000000          DCB      0x00,0x00,0x00,0x00
                          %        64
003ac0  00000000          DCB      0x00,0x00,0x00,0x00
003ac4  00000000          DCB      0x00,0x00,0x00,0x00
003ac8  00040000          DCB      0x00,0x04,0x00,0x00
003acc  00040020          DCB      0x00,0x04,0x00,0x20
003ad0  00040020          DCB      0x00,0x04,0x00,0x20
003ad4  00040020          DCB      0x00,0x04,0x00,0x20
003ad8  007fffe0          DCB      0x00,0x7f,0xff,0xe0
003adc  01ffffe0          DCB      0x01,0xff,0xff,0xe0
003ae0  01040020          DCB      0x01,0x04,0x00,0x20
003ae4  03040020          DCB      0x03,0x04,0x00,0x20
003ae8  02040020          DCB      0x02,0x04,0x00,0x20
003aec  02040020          DCB      0x02,0x04,0x00,0x20
003af0  02040000          DCB      0x02,0x04,0x00,0x00
003af4  02000000          DCB      0x02,0x00,0x00,0x00
003af8  01c00000          DCB      0x01,0xc0,0x00,0x00
003afc  01c00000          DCB      0x01,0xc0,0x00,0x00
                          %        64
003b40  00000000          DCB      0x00,0x00,0x00,0x00
003b44  00000000          DCB      0x00,0x00,0x00,0x00
003b48  0000001c          DCB      0x00,0x00,0x00,0x1c
003b4c  0000e33e          DCB      0x00,0x00,0xe3,0x3e
003b50  0003ffc2          DCB      0x00,0x03,0xff,0xc2
003b54  00020cc3          DCB      0x00,0x02,0x0c,0xc3
003b58  000404c1          DCB      0x00,0x04,0x04,0xc1
003b5c  000404c1          DCB      0x00,0x04,0x04,0xc1
003b60  000404c1          DCB      0x00,0x04,0x04,0xc1
003b64  000404c1          DCB      0x00,0x04,0x04,0xc1
003b68  00060cc1          DCB      0x00,0x06,0x0c,0xc1
003b6c  0003f8c3          DCB      0x00,0x03,0xf8,0xc3
003b70  0005f062          DCB      0x00,0x05,0xf0,0x62
003b74  0006007e          DCB      0x00,0x06,0x00,0x7e
003b78  0006003c          DCB      0x00,0x06,0x00,0x3c
003b7c  00000000          DCB      0x00,0x00,0x00,0x00
                          %        64
003bc0  00000000          DCB      0x00,0x00,0x00,0x00
003bc4  02000020          DCB      0x02,0x00,0x00,0x20
003bc8  02000020          DCB      0x02,0x00,0x00,0x20
003bcc  03ffffe0          DCB      0x03,0xff,0xff,0xe0
003bd0  07ffffe0          DCB      0x07,0xff,0xff,0xe0
003bd4  00010020          DCB      0x00,0x01,0x00,0x20
003bd8  00020020          DCB      0x00,0x02,0x00,0x20
003bdc  00060000          DCB      0x00,0x06,0x00,0x00
003be0  00040000          DCB      0x00,0x04,0x00,0x00
003be4  00040000          DCB      0x00,0x04,0x00,0x00
003be8  00040020          DCB      0x00,0x04,0x00,0x20
003bec  00060020          DCB      0x00,0x06,0x00,0x20
003bf0  0003ffe0          DCB      0x00,0x03,0xff,0xe0
003bf4  0001ffe0          DCB      0x00,0x01,0xff,0xe0
003bf8  00000020          DCB      0x00,0x00,0x00,0x20
003bfc  00000020          DCB      0x00,0x00,0x00,0x20
                          %        64
003c40  00000000          DCB      0x00,0x00,0x00,0x00
003c44  00000000          DCB      0x00,0x00,0x00,0x00
003c48  00000000          DCB      0x00,0x00,0x00,0x00
003c4c  00040020          DCB      0x00,0x04,0x00,0x20
003c50  00040020          DCB      0x00,0x04,0x00,0x20
003c54  00040020          DCB      0x00,0x04,0x00,0x20
003c58  00040020          DCB      0x00,0x04,0x00,0x20
003c5c  0387ffe0          DCB      0x03,0x87,0xff,0xe0
003c60  038fffe0          DCB      0x03,0x8f,0xff,0xe0
003c64  03800020          DCB      0x03,0x80,0x00,0x20
003c68  00000020          DCB      0x00,0x00,0x00,0x20
003c6c  00000020          DCB      0x00,0x00,0x00,0x20
003c70  00000020          DCB      0x00,0x00,0x00,0x20
003c74  00000000          DCB      0x00,0x00,0x00,0x00
003c78  00000000          DCB      0x00,0x00,0x00,0x00
003c7c  00000000          DCB      0x00,0x00,0x00,0x00
                          %        64
003cc0  00000000          DCB      0x00,0x00,0x00,0x00
003cc4  00000000          DCB      0x00,0x00,0x00,0x00
003cc8  00000000          DCB      0x00,0x00,0x00,0x00
003ccc  00000006          DCB      0x00,0x00,0x00,0x06
003cd0  00000007          DCB      0x00,0x00,0x00,0x07
003cd4  00000001          DCB      0x00,0x00,0x00,0x01
003cd8  00000001          DCB      0x00,0x00,0x00,0x01
003cdc  00040001          DCB      0x00,0x04,0x00,0x01
003ce0  00040001          DCB      0x00,0x04,0x00,0x01
003ce4  00040003          DCB      0x00,0x04,0x00,0x03
003ce8  00040006          DCB      0x00,0x04,0x00,0x06
003cec  0387fffc          DCB      0x03,0x87,0xff,0xfc
003cf0  038ffff8          DCB      0x03,0x8f,0xff,0xf8
003cf4  03800000          DCB      0x03,0x80,0x00,0x00
003cf8  00000000          DCB      0x00,0x00,0x00,0x00
003cfc  00000000          DCB      0x00,0x00,0x00,0x00
                          %        64
003d40  00000000          DCB      0x00,0x00,0x00,0x00
003d44  02000020          DCB      0x02,0x00,0x00,0x20
003d48  02000020          DCB      0x02,0x00,0x00,0x20
003d4c  03ffffe0          DCB      0x03,0xff,0xff,0xe0
003d50  07ffffe0          DCB      0x07,0xff,0xff,0xe0
003d54  00000820          DCB      0x00,0x00,0x08,0x20
003d58  00001020          DCB      0x00,0x00,0x10,0x20
003d5c  00003000          DCB      0x00,0x00,0x30,0x00
003d60  0000fc00          DCB      0x00,0x00,0xfc,0x00
003d64  00058e00          DCB      0x00,0x05,0x8e,0x00
003d68  000707a0          DCB      0x00,0x07,0x07,0xa0
003d6c  000601e0          DCB      0x00,0x06,0x01,0xe0
003d70  000400e0          DCB      0x00,0x04,0x00,0xe0
003d74  00040020          DCB      0x00,0x04,0x00,0x20
003d78  00000020          DCB      0x00,0x00,0x00,0x20
003d7c  00000000          DCB      0x00,0x00,0x00,0x00
                          %        64
003dc0  00000000          DCB      0x00,0x00,0x00,0x00
003dc4  00000000          DCB      0x00,0x00,0x00,0x00
003dc8  00000000          DCB      0x00,0x00,0x00,0x00
003dcc  02000020          DCB      0x02,0x00,0x00,0x20
003dd0  02000020          DCB      0x02,0x00,0x00,0x20
003dd4  02000020          DCB      0x02,0x00,0x00,0x20
003dd8  02000020          DCB      0x02,0x00,0x00,0x20
003ddc  03ffffe0          DCB      0x03,0xff,0xff,0xe0
003de0  07ffffe0          DCB      0x07,0xff,0xff,0xe0
003de4  00000020          DCB      0x00,0x00,0x00,0x20
003de8  00000020          DCB      0x00,0x00,0x00,0x20
003dec  00000020          DCB      0x00,0x00,0x00,0x20
003df0  00000020          DCB      0x00,0x00,0x00,0x20
003df4  00000000          DCB      0x00,0x00,0x00,0x00
003df8  00000000          DCB      0x00,0x00,0x00,0x00
003dfc  00000000          DCB      0x00,0x00,0x00,0x00
                          %        64
003e40  00000000          DCB      0x00,0x00,0x00,0x00
003e44  00040020          DCB      0x00,0x04,0x00,0x20
003e48  0007ffe0          DCB      0x00,0x07,0xff,0xe0
003e4c  000fffe0          DCB      0x00,0x0f,0xff,0xe0
003e50  00020020          DCB      0x00,0x02,0x00,0x20
003e54  00040000          DCB      0x00,0x04,0x00,0x00
003e58  00040020          DCB      0x00,0x04,0x00,0x20
003e5c  0007ffe0          DCB      0x00,0x07,0xff,0xe0
003e60  0003ffe0          DCB      0x00,0x03,0xff,0xe0
003e64  00020020          DCB      0x00,0x02,0x00,0x20
003e68  00040000          DCB      0x00,0x04,0x00,0x00
003e6c  00040020          DCB      0x00,0x04,0x00,0x20
003e70  0007ffe0          DCB      0x00,0x07,0xff,0xe0
003e74  0003ffe0          DCB      0x00,0x03,0xff,0xe0
003e78  00000020          DCB      0x00,0x00,0x00,0x20
003e7c  00000000          DCB      0x00,0x00,0x00,0x00
                          %        64
003ec0  00000000          DCB      0x00,0x00,0x00,0x00
003ec4  00040020          DCB      0x00,0x04,0x00,0x20
003ec8  00040020          DCB      0x00,0x04,0x00,0x20
003ecc  0007ffe0          DCB      0x00,0x07,0xff,0xe0
003ed0  000fffe0          DCB      0x00,0x0f,0xff,0xe0
003ed4  00010020          DCB      0x00,0x01,0x00,0x20
003ed8  00020020          DCB      0x00,0x02,0x00,0x20
003edc  00020000          DCB      0x00,0x02,0x00,0x00
003ee0  00040000          DCB      0x00,0x04,0x00,0x00
003ee4  00040000          DCB      0x00,0x04,0x00,0x00
003ee8  00040020          DCB      0x00,0x04,0x00,0x20
003eec  00060020          DCB      0x00,0x06,0x00,0x20
003ef0  0003ffe0          DCB      0x00,0x03,0xff,0xe0
003ef4  0001ffe0          DCB      0x00,0x01,0xff,0xe0
003ef8  00000020          DCB      0x00,0x00,0x00,0x20
003efc  00000020          DCB      0x00,0x00,0x00,0x20
                          %        64
003f40  00000000          DCB      0x00,0x00,0x00,0x00
003f44  00000000          DCB      0x00,0x00,0x00,0x00
003f48  00007e00          DCB      0x00,0x00,0x7e,0x00
003f4c  0000ff80          DCB      0x00,0x00,0xff,0x80
003f50  000381c0          DCB      0x00,0x03,0x81,0xc0
003f54  00020040          DCB      0x00,0x02,0x00,0x40
003f58  00060020          DCB      0x00,0x06,0x00,0x20
003f5c  00040020          DCB      0x00,0x04,0x00,0x20
003f60  00040020          DCB      0x00,0x04,0x00,0x20
003f64  00040020          DCB      0x00,0x04,0x00,0x20
003f68  00060020          DCB      0x00,0x06,0x00,0x20
003f6c  00020040          DCB      0x00,0x02,0x00,0x40
003f70  000381c0          DCB      0x00,0x03,0x81,0xc0
003f74  0001ff80          DCB      0x00,0x01,0xff,0x80
003f78  00007e00          DCB      0x00,0x00,0x7e,0x00
003f7c  00000000          DCB      0x00,0x00,0x00,0x00
                          %        64
003fc0  00000000          DCB      0x00,0x00,0x00,0x00
003fc4  00040001          DCB      0x00,0x04,0x00,0x01
003fc8  00040001          DCB      0x00,0x04,0x00,0x01
003fcc  0007ffff          DCB      0x00,0x07,0xff,0xff
003fd0  000fffff          DCB      0x00,0x0f,0xff,0xff
003fd4  000100c1          DCB      0x00,0x01,0x00,0xc1
003fd8  00020041          DCB      0x00,0x02,0x00,0x41
003fdc  00040020          DCB      0x00,0x04,0x00,0x20
003fe0  00040020          DCB      0x00,0x04,0x00,0x20
003fe4  00040020          DCB      0x00,0x04,0x00,0x20
003fe8  00040020          DCB      0x00,0x04,0x00,0x20
003fec  00060040          DCB      0x00,0x06,0x00,0x40
003ff0  000301c0          DCB      0x00,0x03,0x01,0xc0
003ff4  0001ff80          DCB      0x00,0x01,0xff,0x80
003ff8  00007e00          DCB      0x00,0x00,0x7e,0x00
003ffc  00000000          DCB      0x00,0x00,0x00,0x00
                          %        64
004040  00000000          DCB      0x00,0x00,0x00,0x00
004044  00000000          DCB      0x00,0x00,0x00,0x00
004048  00007e00          DCB      0x00,0x00,0x7e,0x00
00404c  0001ff80          DCB      0x00,0x01,0xff,0x80
004050  000380c0          DCB      0x00,0x03,0x80,0xc0
004054  00020060          DCB      0x00,0x02,0x00,0x60
004058  00040020          DCB      0x00,0x04,0x00,0x20
00405c  00040020          DCB      0x00,0x04,0x00,0x20
004060  00040020          DCB      0x00,0x04,0x00,0x20
004064  00040020          DCB      0x00,0x04,0x00,0x20
004068  00020041          DCB      0x00,0x02,0x00,0x41
00406c  000300c1          DCB      0x00,0x03,0x00,0xc1
004070  0003ffff          DCB      0x00,0x03,0xff,0xff
004074  0007ffff          DCB      0x00,0x07,0xff,0xff
004078  00000001          DCB      0x00,0x00,0x00,0x01
00407c  00000001          DCB      0x00,0x00,0x00,0x01
                          %        64
0040c0  00000000          DCB      0x00,0x00,0x00,0x00
0040c4  00040020          DCB      0x00,0x04,0x00,0x20
0040c8  00040020          DCB      0x00,0x04,0x00,0x20
0040cc  00040020          DCB      0x00,0x04,0x00,0x20
0040d0  00040020          DCB      0x00,0x04,0x00,0x20
0040d4  000fffe0          DCB      0x00,0x0f,0xff,0xe0
0040d8  000fffe0          DCB      0x00,0x0f,0xff,0xe0
0040dc  0000c020          DCB      0x00,0x00,0xc0,0x20
0040e0  00010020          DCB      0x00,0x01,0x00,0x20
0040e4  00020020          DCB      0x00,0x02,0x00,0x20
0040e8  00060020          DCB      0x00,0x06,0x00,0x20
0040ec  00040000          DCB      0x00,0x04,0x00,0x00
0040f0  00040000          DCB      0x00,0x04,0x00,0x00
0040f4  00070000          DCB      0x00,0x07,0x00,0x00
0040f8  00030000          DCB      0x00,0x03,0x00,0x00
0040fc  00000000          DCB      0x00,0x00,0x00,0x00
                          %        64
004140  00000000          DCB      0x00,0x00,0x00,0x00
004144  00000000          DCB      0x00,0x00,0x00,0x00
004148  000003e0          DCB      0x00,0x00,0x03,0xe0
00414c  0001c0e0          DCB      0x00,0x01,0xc0,0xe0
004150  0003e040          DCB      0x00,0x03,0xe0,0x40
004154  00063020          DCB      0x00,0x06,0x30,0x20
004158  00043020          DCB      0x00,0x04,0x30,0x20
00415c  00041820          DCB      0x00,0x04,0x18,0x20
004160  00041820          DCB      0x00,0x04,0x18,0x20
004164  00041820          DCB      0x00,0x04,0x18,0x20
004168  00040c20          DCB      0x00,0x04,0x0c,0x20
00416c  00020c60          DCB      0x00,0x02,0x0c,0x60
004170  000307c0          DCB      0x00,0x03,0x07,0xc0
004174  00078380          DCB      0x00,0x07,0x83,0x80
004178  00000000          DCB      0x00,0x00,0x00,0x00
00417c  00000000          DCB      0x00,0x00,0x00,0x00
                          %        64
0041c0  00000000          DCB      0x00,0x00,0x00,0x00
0041c4  00000000          DCB      0x00,0x00,0x00,0x00
0041c8  00040000          DCB      0x00,0x04,0x00,0x00
0041cc  00040000          DCB      0x00,0x04,0x00,0x00
0041d0  00040000          DCB      0x00,0x04,0x00,0x00
0041d4  000c0000          DCB      0x00,0x0c,0x00,0x00
0041d8  001fff80          DCB      0x00,0x1f,0xff,0x80
0041dc  00ffffc0          DCB      0x00,0xff,0xff,0xc0
0041e0  00040060          DCB      0x00,0x04,0x00,0x60
0041e4  00040020          DCB      0x00,0x04,0x00,0x20
0041e8  00040020          DCB      0x00,0x04,0x00,0x20
0041ec  00040020          DCB      0x00,0x04,0x00,0x20
0041f0  00040040          DCB      0x00,0x04,0x00,0x40
0041f4  00000180          DCB      0x00,0x00,0x01,0x80
0041f8  00000000          DCB      0x00,0x00,0x00,0x00
0041fc  00000000          DCB      0x00,0x00,0x00,0x00
                          %        64
004240  00000000          DCB      0x00,0x00,0x00,0x00
004244  00040000          DCB      0x00,0x04,0x00,0x00
004248  00040000          DCB      0x00,0x04,0x00,0x00
00424c  0007ff80          DCB      0x00,0x07,0xff,0x80
004250  000fffc0          DCB      0x00,0x0f,0xff,0xc0
004254  00000060          DCB      0x00,0x00,0x00,0x60
004258  00000020          DCB      0x00,0x00,0x00,0x20
00425c  00000020          DCB      0x00,0x00,0x00,0x20
004260  00000020          DCB      0x00,0x00,0x00,0x20
004264  00000020          DCB      0x00,0x00,0x00,0x20
004268  00040040          DCB      0x00,0x04,0x00,0x40
00426c  00040080          DCB      0x00,0x04,0x00,0x80
004270  0007ffe0          DCB      0x00,0x07,0xff,0xe0
004274  000fffc0          DCB      0x00,0x0f,0xff,0xc0
004278  00000040          DCB      0x00,0x00,0x00,0x40
00427c  00000040          DCB      0x00,0x00,0x00,0x40
                          %        64
0042c0  00000000          DCB      0x00,0x00,0x00,0x00
0042c4  00040000          DCB      0x00,0x04,0x00,0x00
0042c8  00040000          DCB      0x00,0x04,0x00,0x00
0042cc  00078000          DCB      0x00,0x07,0x80,0x00
0042d0  0007f000          DCB      0x00,0x07,0xf0,0x00
0042d4  0004fe00          DCB      0x00,0x04,0xfe,0x00
0042d8  00041fc0          DCB      0x00,0x04,0x1f,0xc0
0042dc  000003e0          DCB      0x00,0x00,0x03,0xe0
0042e0  00000380          DCB      0x00,0x00,0x03,0x80
0042e4  00001c00          DCB      0x00,0x00,0x1c,0x00
0042e8  00046000          DCB      0x00,0x04,0x60,0x00
0042ec  00078000          DCB      0x00,0x07,0x80,0x00
0042f0  00060000          DCB      0x00,0x06,0x00,0x00
0042f4  00040000          DCB      0x00,0x04,0x00,0x00
0042f8  00000000          DCB      0x00,0x00,0x00,0x00
0042fc  00000000          DCB      0x00,0x00,0x00,0x00
                          %        64
004340  00040000          DCB      0x00,0x04,0x00,0x00
004344  00060000          DCB      0x00,0x06,0x00,0x00
004348  0007c000          DCB      0x00,0x07,0xc0,0x00
00434c  0007fc00          DCB      0x00,0x07,0xfc,0x00
004350  00043f80          DCB      0x00,0x04,0x3f,0x80
004354  000003e0          DCB      0x00,0x00,0x03,0xe0
004358  00040f80          DCB      0x00,0x04,0x0f,0x80
00435c  0006f000          DCB      0x00,0x06,0xf0,0x00
004360  0007f000          DCB      0x00,0x07,0xf0,0x00
004364  0007ff80          DCB      0x00,0x07,0xff,0x80
004368  00040fe0          DCB      0x00,0x04,0x0f,0xe0
00436c  00000380          DCB      0x00,0x00,0x03,0x80
004370  00043c00          DCB      0x00,0x04,0x3c,0x00
004374  0007c000          DCB      0x00,0x07,0xc0,0x00
004378  00060000          DCB      0x00,0x06,0x00,0x00
00437c  00040000          DCB      0x00,0x04,0x00,0x00
                          %        64
0043c0  00000000          DCB      0x00,0x00,0x00,0x00
0043c4  00000020          DCB      0x00,0x00,0x00,0x20
0043c8  00040020          DCB      0x00,0x04,0x00,0x20
0043cc  00040060          DCB      0x00,0x04,0x00,0x60
0043d0  000700e0          DCB      0x00,0x07,0x00,0xe0
0043d4  00078320          DCB      0x00,0x07,0x83,0x20
0043d8  0007e600          DCB      0x00,0x07,0xe6,0x00
0043dc  0004f800          DCB      0x00,0x04,0xf8,0x00
0043e0  00003c00          DCB      0x00,0x00,0x3c,0x00
0043e4  00045e20          DCB      0x00,0x04,0x5e,0x20
0043e8  000587a0          DCB      0x00,0x05,0x87,0xa0
0043ec  000601e0          DCB      0x00,0x06,0x01,0xe0
0043f0  00040060          DCB      0x00,0x04,0x00,0x60
0043f4  00040020          DCB      0x00,0x04,0x00,0x20
0043f8  00000020          DCB      0x00,0x00,0x00,0x20
0043fc  00000000          DCB      0x00,0x00,0x00,0x00
                          %        64
004440  00000000          DCB      0x00,0x00,0x00,0x00
004444  00040000          DCB      0x00,0x04,0x00,0x00
004448  00040003          DCB      0x00,0x04,0x00,0x03
00444c  00070003          DCB      0x00,0x07,0x00,0x03
004450  0007e001          DCB      0x00,0x07,0xe0,0x01
004454  0004f801          DCB      0x00,0x04,0xf8,0x01
004458  00041f02          DCB      0x00,0x04,0x1f,0x02
00445c  000007fc          DCB      0x00,0x00,0x07,0xfc
004460  000000e0          DCB      0x00,0x00,0x00,0xe0
004464  00000700          DCB      0x00,0x00,0x07,0x00
004468  00043800          DCB      0x00,0x04,0x38,0x00
00446c  0007c000          DCB      0x00,0x07,0xc0,0x00
004470  00060000          DCB      0x00,0x06,0x00,0x00
004474  00040000          DCB      0x00,0x04,0x00,0x00
004478  00040000          DCB      0x00,0x04,0x00,0x00
00447c  00000000          DCB      0x00,0x00,0x00,0x00
                          %        64
0044c0  00000000          DCB      0x00,0x00,0x00,0x00
0044c4  00000000          DCB      0x00,0x00,0x00,0x00
0044c8  00078060          DCB      0x00,0x07,0x80,0x60
0044cc  000600e0          DCB      0x00,0x06,0x00,0xe0
0044d0  000403e0          DCB      0x00,0x04,0x03,0xe0
0044d4  000407a0          DCB      0x00,0x04,0x07,0xa0
0044d8  00040e20          DCB      0x00,0x04,0x0e,0x20
0044dc  00043c20          DCB      0x00,0x04,0x3c,0x20
0044e0  00047020          DCB      0x00,0x04,0x70,0x20
0044e4  0005e020          DCB      0x00,0x05,0xe0,0x20
0044e8  00078020          DCB      0x00,0x07,0x80,0x20
0044ec  00070060          DCB      0x00,0x07,0x00,0x60
0044f0  000400e0          DCB      0x00,0x04,0x00,0xe0
0044f4  00000380          DCB      0x00,0x00,0x03,0x80
0044f8  00000000          DCB      0x00,0x00,0x00,0x00
0044fc  00000000          DCB      0x00,0x00,0x00,0x00
                          %        64
004540  00000000          DCB      0x00,0x00,0x00,0x00
004544  00000000          DCB      0x00,0x00,0x00,0x00
004548  00000000          DCB      0x00,0x00,0x00,0x00
00454c  00000000          DCB      0x00,0x00,0x00,0x00
004550  00000000          DCB      0x00,0x00,0x00,0x00
004554  00000000          DCB      0x00,0x00,0x00,0x00
004558  00000000          DCB      0x00,0x00,0x00,0x00
00455c  00008000          DCB      0x00,0x00,0x80,0x00
004560  00008000          DCB      0x00,0x00,0x80,0x00
004564  00014000          DCB      0x00,0x01,0x40,0x00
004568  07fe3ff8          DCB      0x07,0xfe,0x3f,0xf8
00456c  08000004          DCB      0x08,0x00,0x00,0x04
004570  10000002          DCB      0x10,0x00,0x00,0x02
004574  10000002          DCB      0x10,0x00,0x00,0x02
004578  00000000          DCB      0x00,0x00,0x00,0x00
00457c  00000000          DCB      0x00,0x00,0x00,0x00
                          %        64
0045c0  00000000          DCB      0x00,0x00,0x00,0x00
0045c4  00000000          DCB      0x00,0x00,0x00,0x00
0045c8  00000000          DCB      0x00,0x00,0x00,0x00
0045cc  00000000          DCB      0x00,0x00,0x00,0x00
0045d0  00000000          DCB      0x00,0x00,0x00,0x00
0045d4  00000000          DCB      0x00,0x00,0x00,0x00
0045d8  00000000          DCB      0x00,0x00,0x00,0x00
0045dc  00000000          DCB      0x00,0x00,0x00,0x00
0045e0  ffffffff          DCB      0xff,0xff,0xff,0xff
0045e4  00000000          DCB      0x00,0x00,0x00,0x00
0045e8  00000000          DCB      0x00,0x00,0x00,0x00
0045ec  00000000          DCB      0x00,0x00,0x00,0x00
0045f0  00000000          DCB      0x00,0x00,0x00,0x00
0045f4  00000000          DCB      0x00,0x00,0x00,0x00
0045f8  00000000          DCB      0x00,0x00,0x00,0x00
0045fc  00000000          DCB      0x00,0x00,0x00,0x00
                          %        64
004640  00000000          DCB      0x00,0x00,0x00,0x00
004644  00000000          DCB      0x00,0x00,0x00,0x00
004648  10000002          DCB      0x10,0x00,0x00,0x02
00464c  10000002          DCB      0x10,0x00,0x00,0x02
004650  08000004          DCB      0x08,0x00,0x00,0x04
004654  07fe3ff8          DCB      0x07,0xfe,0x3f,0xf8
004658  00014000          DCB      0x00,0x01,0x40,0x00
00465c  00008000          DCB      0x00,0x00,0x80,0x00
004660  00008000          DCB      0x00,0x00,0x80,0x00
004664  00000000          DCB      0x00,0x00,0x00,0x00
004668  00000000          DCB      0x00,0x00,0x00,0x00
00466c  00000000          DCB      0x00,0x00,0x00,0x00
004670  00000000          DCB      0x00,0x00,0x00,0x00
004674  00000000          DCB      0x00,0x00,0x00,0x00
004678  00000000          DCB      0x00,0x00,0x00,0x00
00467c  00000000          DCB      0x00,0x00,0x00,0x00
                          %        64
0046c0  00000000          DCB      0x00,0x00,0x00,0x00
0046c4  18000000          DCB      0x18,0x00,0x00,0x00
0046c8  30000000          DCB      0x30,0x00,0x00,0x00
0046cc  40000000          DCB      0x40,0x00,0x00,0x00
0046d0  40000000          DCB      0x40,0x00,0x00,0x00
0046d4  40000000          DCB      0x40,0x00,0x00,0x00
0046d8  20000000          DCB      0x20,0x00,0x00,0x00
0046dc  30000000          DCB      0x30,0x00,0x00,0x00
0046e0  08000000          DCB      0x08,0x00,0x00,0x00
0046e4  04000000          DCB      0x04,0x00,0x00,0x00
0046e8  02000000          DCB      0x02,0x00,0x00,0x00
0046ec  02000000          DCB      0x02,0x00,0x00,0x00
0046f0  02000000          DCB      0x02,0x00,0x00,0x00
0046f4  0c000000          DCB      0x0c,0x00,0x00,0x00
0046f8  18000000          DCB      0x18,0x00,0x00,0x00
0046fc  00000000          DCB      0x00,0x00,0x00,0x00
                          %        64

                          AREA ||.data||, DATA, ALIGN=2

                  point_color
                          DCD      0xff000000
                  back_color
                          DCD      0xffffffff

;*** Start embedded assembler ***

#line 1 "..\\tb_Driver\\lcd.c"
	AREA ||.rev16_text||, CODE
	THUMB
	EXPORT |__asm___5_lcd_c_b9e5b2ae____REV16|
#line 388 "..\\ext\\inc\\cmsis_armcc.h"
|__asm___5_lcd_c_b9e5b2ae____REV16| PROC
#line 389

 rev16 r0, r0
 bx lr
	ENDP
	AREA ||.revsh_text||, CODE
	THUMB
	EXPORT |__asm___5_lcd_c_b9e5b2ae____REVSH|
#line 402
|__asm___5_lcd_c_b9e5b2ae____REVSH| PROC
#line 403

 revsh r0, r0
 bx lr
	ENDP
	AREA ||.rrx_text||, CODE
	THUMB
	EXPORT |__asm___5_lcd_c_b9e5b2ae____RRX|
#line 587
|__asm___5_lcd_c_b9e5b2ae____RRX| PROC
#line 588

 rrx r0, r0
 bx lr
	ENDP

;*** End   embedded assembler ***
